
hello.img:     file format elf64-littleriscv


Disassembly of section .init:

0000000080000000 <.init>:
    80000000:	f14027f3          	csrr	a5,mhartid
    80000004:	8b8d                	andi	a5,a5,3
    80000006:	e399                	bnez	a5,0x8000000c
    80000008:	10500073          	wfi
    8000000c:	47a1                	li	a5,8
    8000000e:	3007b073          	csrc	mstatus,a5
    80000012:	3047a073          	csrs	mie,a5
    80000016:	4785                	li	a5,1
    80000018:	00003717          	auipc	a4,0x3
    8000001c:	74070713          	addi	a4,a4,1856 # 0x80003758
    80000020:	1782                	slli	a5,a5,0x20
    80000022:	17f1                	addi	a5,a5,-4
    80000024:	8ff9                	and	a5,a5,a4
    80000026:	30579073          	csrw	mtvec,a5
    8000002a:	10579073          	csrw	stvec,a5
    8000002e:	110007b7          	lui	a5,0x11000
    80000032:	dff78793          	addi	a5,a5,-513 # 0x10fffdff
    80000036:	078e                	slli	a5,a5,0x3
    80000038:	813e                	mv	sp,a5
    8000003a:	00003097          	auipc	ra,0x3
    8000003e:	65e080e7          	jalr	1630(ra) # 0x80003698
    80000042:	6785                	lui	a5,0x1
    80000044:	88078793          	addi	a5,a5,-1920 # 0x880
    80000048:	30079073          	csrw	mstatus,a5
    8000004c:	00001797          	auipc	a5,0x1
    80000050:	cb278793          	addi	a5,a5,-846 # 0x80000cfe
    80000054:	34179073          	csrw	mepc,a5
    80000058:	57fd                	li	a5,-1
    8000005a:	3b079073          	csrw	pmpaddr0,a5
    8000005e:	47bd                	li	a5,15
    80000060:	3a079073          	csrw	pmpcfg0,a5
    80000064:	4781                	li	a5,0
    80000066:	18079073          	csrw	satp,a5
    8000006a:	22200793          	li	a5,546
    8000006e:	30379073          	csrw	mideleg,a5
    80000072:	67c1                	lui	a5,0x10
    80000074:	17fd                	addi	a5,a5,-1 # 0xffff
    80000076:	30279073          	csrw	medeleg,a5
    8000007a:	30200073          	mret
    8000007e:	00006797          	auipc	a5,0x6
    80000082:	f627b783          	ld	a5,-158(a5) # 0x80005fe0
    80000086:	577d                	li	a4,-1
    80000088:	02e78863          	beq	a5,a4,0x800000b8
    8000008c:	1101                	addi	sp,sp,-32
    8000008e:	ec06                	sd	ra,24(sp)
    80000090:	e822                	sd	s0,16(sp)
    80000092:	e426                	sd	s1,8(sp)
    80000094:	00006417          	auipc	s0,0x6
    80000098:	f4c40413          	addi	s0,s0,-180 # 0x80005fe0
    8000009c:	54fd                	li	s1,-1
    8000009e:	a031                	j	0x800000aa
    800000a0:	9782                	jalr	a5
    800000a2:	1461                	addi	s0,s0,-8
    800000a4:	601c                	ld	a5,0(s0)
    800000a6:	00978463          	beq	a5,s1,0x800000ae
    800000aa:	f87d                	bnez	s0,0x800000a0
    800000ac:	bfdd                	j	0x800000a2
    800000ae:	60e2                	ld	ra,24(sp)
    800000b0:	6442                	ld	s0,16(sp)
    800000b2:	64a2                	ld	s1,8(sp)
    800000b4:	6105                	addi	sp,sp,32
    800000b6:	8082                	ret
    800000b8:	8082                	ret

Disassembly of section .data:

0000000080400000 <.data>:
    80400000:	0000                	unimp
    80400002:	8000                	.2byte	0x8000
    80400004:	0000                	unimp
    80400006:	0000                	unimp
    80400008:	ffff                	.2byte	0xffff
    8040000a:	87ff                	.2byte	0x87ff
	...
    80400018:	ffff                	.2byte	0xffff
    8040001a:	1fff                	.2byte	0x1fff
    8040001c:	0000                	unimp
    8040001e:	0000                	unimp
    80400020:	0001                	nop
    80400022:	ffff                	.2byte	0xffff
    80400024:	ffff                	.2byte	0xffff
    80400026:	ffff                	.2byte	0xffff
    80400028:	ffff                	.2byte	0xffff
    8040002a:	ffff                	.2byte	0xffff
    8040002c:	ffff                	.2byte	0xffff
    8040002e:	ffff                	.2byte	0xffff
    80400030:	96f8                	.2byte	0x96f8
    80400032:	af78                	fsd	fa4,216(a4)
    80400034:	9a54                	.2byte	0x9a54
    80400036:	281a                	fld	fa6,384(sp)
    80400038:	67f8                	ld	a4,200(a5)
    8040003a:	0000                	unimp
    8040003c:	0000                	unimp
    8040003e:	0000                	unimp
    80400040:	ffff                	.2byte	0xffff
    80400042:	ffff                	.2byte	0xffff
    80400044:	ffff                	.2byte	0xffff
    80400046:	ffff                	.2byte	0xffff
    80400048:	ffff                	.2byte	0xffff
    8040004a:	ffff                	.2byte	0xffff
    8040004c:	ffff                	.2byte	0xffff
    8040004e:	ffff                	.2byte	0xffff
    80400050:	ffff                	.2byte	0xffff
    80400052:	ffff                	.2byte	0xffff
    80400054:	ffff                	.2byte	0xffff
    80400056:	ffff                	.2byte	0xffff
	...
    80400060:	ffff                	.2byte	0xffff
    80400062:	ffff                	.2byte	0xffff
    80400064:	ffff                	.2byte	0xffff
    80400066:	ffff                	.2byte	0xffff
	...

Disassembly of section .text:

0000000080000100 <.text>:
    80000100:	7159                	addi	sp,sp,-112
    80000102:	f486                	sd	ra,104(sp)
    80000104:	f0a2                	sd	s0,96(sp)
    80000106:	eca6                	sd	s1,88(sp)
    80000108:	e8ca                	sd	s2,80(sp)
    8000010a:	e4ce                	sd	s3,72(sp)
    8000010c:	84aa                	mv	s1,a0
    8000010e:	611c                	ld	a5,0(a0)
    80000110:	6fb8                	ld	a4,88(a5)
    80000112:	57fd                	li	a5,-1
    80000114:	9381                	srli	a5,a5,0x20
    80000116:	66f70a63          	beq	a4,a5,0x8000078a
    8000011a:	00004517          	auipc	a0,0x4
    8000011e:	e3e50513          	addi	a0,a0,-450 # 0x80003f58
    80000122:	00002097          	auipc	ra,0x2
    80000126:	9ea080e7          	jalr	-1558(ra) # 0x80001b0c
    8000012a:	00400417          	auipc	s0,0x400
    8000012e:	12e40413          	addi	s0,s0,302 # 0x80400258
    80000132:	00400517          	auipc	a0,0x400
    80000136:	12a54503          	lbu	a0,298(a0) # 0x8040025c
    8000013a:	00002097          	auipc	ra,0x2
    8000013e:	a6c080e7          	jalr	-1428(ra) # 0x80001ba6
    80000142:	00004517          	auipc	a0,0x4
    80000146:	e0e50513          	addi	a0,a0,-498 # 0x80003f50
    8000014a:	00002097          	auipc	ra,0x2
    8000014e:	9c2080e7          	jalr	-1598(ra) # 0x80001b0c
    80000152:	4929                	li	s2,10
    80000154:	01242023          	sw	s2,0(s0)
    80000158:	00004517          	auipc	a0,0x4
    8000015c:	e1050513          	addi	a0,a0,-496 # 0x80003f68
    80000160:	00002097          	auipc	ra,0x2
    80000164:	9ac080e7          	jalr	-1620(ra) # 0x80001b0c
    80000168:	00444503          	lbu	a0,4(s0)
    8000016c:	00002097          	auipc	ra,0x2
    80000170:	a3a080e7          	jalr	-1478(ra) # 0x80001ba6
    80000174:	00004517          	auipc	a0,0x4
    80000178:	ddc50513          	addi	a0,a0,-548 # 0x80003f50
    8000017c:	00002097          	auipc	ra,0x2
    80000180:	990080e7          	jalr	-1648(ra) # 0x80001b0c
    80000184:	01242023          	sw	s2,0(s0)
    80000188:	00004517          	auipc	a0,0x4
    8000018c:	e0850513          	addi	a0,a0,-504 # 0x80003f90
    80000190:	00002097          	auipc	ra,0x2
    80000194:	97c080e7          	jalr	-1668(ra) # 0x80001b0c
    80000198:	00004517          	auipc	a0,0x4
    8000019c:	e1050513          	addi	a0,a0,-496 # 0x80003fa8
    800001a0:	00002097          	auipc	ra,0x2
    800001a4:	96c080e7          	jalr	-1684(ra) # 0x80001b0c
    800001a8:	00444503          	lbu	a0,4(s0)
    800001ac:	00002097          	auipc	ra,0x2
    800001b0:	9fa080e7          	jalr	-1542(ra) # 0x80001ba6
    800001b4:	00004517          	auipc	a0,0x4
    800001b8:	d9c50513          	addi	a0,a0,-612 # 0x80003f50
    800001bc:	00002097          	auipc	ra,0x2
    800001c0:	950080e7          	jalr	-1712(ra) # 0x80001b0c
    800001c4:	01242023          	sw	s2,0(s0)
    800001c8:	00004517          	auipc	a0,0x4
    800001cc:	de850513          	addi	a0,a0,-536 # 0x80003fb0
    800001d0:	00002097          	auipc	ra,0x2
    800001d4:	93c080e7          	jalr	-1732(ra) # 0x80001b0c
    800001d8:	4681                	li	a3,0
    800001da:	860a                	mv	a2,sp
    800001dc:	4585                	li	a1,1
    800001de:	8522                	mv	a0,s0
    800001e0:	00002097          	auipc	ra,0x2
    800001e4:	bd0080e7          	jalr	-1072(ra) # 0x80001db0
    800001e8:	04050793          	addi	a5,a0,64
    800001ec:	00278533          	add	a0,a5,sp
    800001f0:	fc050023          	sb	zero,-64(a0)
    800001f4:	850a                	mv	a0,sp
    800001f6:	00002097          	auipc	ra,0x2
    800001fa:	916080e7          	jalr	-1770(ra) # 0x80001b0c
    800001fe:	00004517          	auipc	a0,0x4
    80000202:	dca50513          	addi	a0,a0,-566 # 0x80003fc8
    80000206:	00002097          	auipc	ra,0x2
    8000020a:	906080e7          	jalr	-1786(ra) # 0x80001b0c
    8000020e:	4681                	li	a3,0
    80000210:	860a                	mv	a2,sp
    80000212:	04000593          	li	a1,64
    80000216:	8522                	mv	a0,s0
    80000218:	00002097          	auipc	ra,0x2
    8000021c:	b98080e7          	jalr	-1128(ra) # 0x80001db0
    80000220:	04050793          	addi	a5,a0,64
    80000224:	00278533          	add	a0,a5,sp
    80000228:	fc050023          	sb	zero,-64(a0)
    8000022c:	850a                	mv	a0,sp
    8000022e:	00002097          	auipc	ra,0x2
    80000232:	8de080e7          	jalr	-1826(ra) # 0x80001b0c
    80000236:	00004517          	auipc	a0,0x4
    8000023a:	d9a50513          	addi	a0,a0,-614 # 0x80003fd0
    8000023e:	00002097          	auipc	ra,0x2
    80000242:	8ce080e7          	jalr	-1842(ra) # 0x80001b0c
    80000246:	4681                	li	a3,0
    80000248:	860a                	mv	a2,sp
    8000024a:	3e800593          	li	a1,1000
    8000024e:	8522                	mv	a0,s0
    80000250:	00002097          	auipc	ra,0x2
    80000254:	b60080e7          	jalr	-1184(ra) # 0x80001db0
    80000258:	04050793          	addi	a5,a0,64
    8000025c:	00278533          	add	a0,a5,sp
    80000260:	fc050023          	sb	zero,-64(a0)
    80000264:	850a                	mv	a0,sp
    80000266:	00002097          	auipc	ra,0x2
    8000026a:	8a6080e7          	jalr	-1882(ra) # 0x80001b0c
    8000026e:	00004517          	auipc	a0,0x4
    80000272:	d6a50513          	addi	a0,a0,-662 # 0x80003fd8
    80000276:	00002097          	auipc	ra,0x2
    8000027a:	896080e7          	jalr	-1898(ra) # 0x80001b0c
    8000027e:	4681                	li	a3,0
    80000280:	860a                	mv	a2,sp
    80000282:	02100593          	li	a1,33
    80000286:	8522                	mv	a0,s0
    80000288:	00002097          	auipc	ra,0x2
    8000028c:	b28080e7          	jalr	-1240(ra) # 0x80001db0
    80000290:	04050793          	addi	a5,a0,64
    80000294:	00278533          	add	a0,a5,sp
    80000298:	fc050023          	sb	zero,-64(a0)
    8000029c:	850a                	mv	a0,sp
    8000029e:	00002097          	auipc	ra,0x2
    800002a2:	86e080e7          	jalr	-1938(ra) # 0x80001b0c
    800002a6:	00004517          	auipc	a0,0x4
    800002aa:	d4a50513          	addi	a0,a0,-694 # 0x80003ff0
    800002ae:	00002097          	auipc	ra,0x2
    800002b2:	85e080e7          	jalr	-1954(ra) # 0x80001b0c
    800002b6:	00444503          	lbu	a0,4(s0)
    800002ba:	00002097          	auipc	ra,0x2
    800002be:	8ec080e7          	jalr	-1812(ra) # 0x80001ba6
    800002c2:	00004517          	auipc	a0,0x4
    800002c6:	c8e50513          	addi	a0,a0,-882 # 0x80003f50
    800002ca:	00002097          	auipc	ra,0x2
    800002ce:	842080e7          	jalr	-1982(ra) # 0x80001b0c
    800002d2:	01242023          	sw	s2,0(s0)
    800002d6:	00004517          	auipc	a0,0x4
    800002da:	d2250513          	addi	a0,a0,-734 # 0x80003ff8
    800002de:	00002097          	auipc	ra,0x2
    800002e2:	82e080e7          	jalr	-2002(ra) # 0x80001b0c
    800002e6:	00444503          	lbu	a0,4(s0)
    800002ea:	00002097          	auipc	ra,0x2
    800002ee:	8bc080e7          	jalr	-1860(ra) # 0x80001ba6
    800002f2:	00004517          	auipc	a0,0x4
    800002f6:	c5e50513          	addi	a0,a0,-930 # 0x80003f50
    800002fa:	00002097          	auipc	ra,0x2
    800002fe:	812080e7          	jalr	-2030(ra) # 0x80001b0c
    80000302:	01242023          	sw	s2,0(s0)
    80000306:	00004517          	auipc	a0,0x4
    8000030a:	d1250513          	addi	a0,a0,-750 # 0x80004018
    8000030e:	00001097          	auipc	ra,0x1
    80000312:	7fe080e7          	jalr	2046(ra) # 0x80001b0c
    80000316:	4681                	li	a3,0
    80000318:	860a                	mv	a2,sp
    8000031a:	000205b7          	lui	a1,0x20
    8000031e:	8522                	mv	a0,s0
    80000320:	00002097          	auipc	ra,0x2
    80000324:	a90080e7          	jalr	-1392(ra) # 0x80001db0
    80000328:	04050793          	addi	a5,a0,64
    8000032c:	00278533          	add	a0,a5,sp
    80000330:	fc050023          	sb	zero,-64(a0)
    80000334:	850a                	mv	a0,sp
    80000336:	00001097          	auipc	ra,0x1
    8000033a:	7d6080e7          	jalr	2006(ra) # 0x80001b0c
    8000033e:	00004517          	auipc	a0,0x4
    80000342:	cf250513          	addi	a0,a0,-782 # 0x80004030
    80000346:	00001097          	auipc	ra,0x1
    8000034a:	7c6080e7          	jalr	1990(ra) # 0x80001b0c
    8000034e:	860a                	mv	a2,sp
    80000350:	4985                	li	s3,1
    80000352:	01f99593          	slli	a1,s3,0x1f
    80000356:	8522                	mv	a0,s0
    80000358:	00002097          	auipc	ra,0x2
    8000035c:	b3e080e7          	jalr	-1218(ra) # 0x80001e96
    80000360:	04050793          	addi	a5,a0,64
    80000364:	00278533          	add	a0,a5,sp
    80000368:	fc050023          	sb	zero,-64(a0)
    8000036c:	850a                	mv	a0,sp
    8000036e:	00001097          	auipc	ra,0x1
    80000372:	79e080e7          	jalr	1950(ra) # 0x80001b0c
    80000376:	00004517          	auipc	a0,0x4
    8000037a:	cc250513          	addi	a0,a0,-830 # 0x80004038
    8000037e:	00001097          	auipc	ra,0x1
    80000382:	78e080e7          	jalr	1934(ra) # 0x80001b0c
    80000386:	860a                	mv	a2,sp
    80000388:	45c5                	li	a1,17
    8000038a:	05ee                	slli	a1,a1,0x1b
    8000038c:	15fd                	addi	a1,a1,-1 # 0x1ffff
    8000038e:	8522                	mv	a0,s0
    80000390:	00002097          	auipc	ra,0x2
    80000394:	b06080e7          	jalr	-1274(ra) # 0x80001e96
    80000398:	04050793          	addi	a5,a0,64
    8000039c:	00278533          	add	a0,a5,sp
    800003a0:	fc050023          	sb	zero,-64(a0)
    800003a4:	850a                	mv	a0,sp
    800003a6:	00001097          	auipc	ra,0x1
    800003aa:	766080e7          	jalr	1894(ra) # 0x80001b0c
    800003ae:	00004517          	auipc	a0,0x4
    800003b2:	c9250513          	addi	a0,a0,-878 # 0x80004040
    800003b6:	00001097          	auipc	ra,0x1
    800003ba:	756080e7          	jalr	1878(ra) # 0x80001b0c
    800003be:	00444503          	lbu	a0,4(s0)
    800003c2:	00001097          	auipc	ra,0x1
    800003c6:	7e4080e7          	jalr	2020(ra) # 0x80001ba6
    800003ca:	00004517          	auipc	a0,0x4
    800003ce:	b8650513          	addi	a0,a0,-1146 # 0x80003f50
    800003d2:	00001097          	auipc	ra,0x1
    800003d6:	73a080e7          	jalr	1850(ra) # 0x80001b0c
    800003da:	01242023          	sw	s2,0(s0)
    800003de:	00004517          	auipc	a0,0x4
    800003e2:	c6a50513          	addi	a0,a0,-918 # 0x80004048
    800003e6:	00001097          	auipc	ra,0x1
    800003ea:	726080e7          	jalr	1830(ra) # 0x80001b0c
    800003ee:	4681                	li	a3,0
    800003f0:	860a                	mv	a2,sp
    800003f2:	000205b7          	lui	a1,0x20
    800003f6:	fbc58593          	addi	a1,a1,-68 # 0x1ffbc
    800003fa:	8522                	mv	a0,s0
    800003fc:	00002097          	auipc	ra,0x2
    80000400:	9b4080e7          	jalr	-1612(ra) # 0x80001db0
    80000404:	04050793          	addi	a5,a0,64
    80000408:	00278533          	add	a0,a5,sp
    8000040c:	fc050023          	sb	zero,-64(a0)
    80000410:	850a                	mv	a0,sp
    80000412:	00001097          	auipc	ra,0x1
    80000416:	6fa080e7          	jalr	1786(ra) # 0x80001b0c
    8000041a:	00004517          	auipc	a0,0x4
    8000041e:	c1650513          	addi	a0,a0,-1002 # 0x80004030
    80000422:	00001097          	auipc	ra,0x1
    80000426:	6ea080e7          	jalr	1770(ra) # 0x80001b0c
    8000042a:	860a                	mv	a2,sp
    8000042c:	01f99593          	slli	a1,s3,0x1f
    80000430:	8522                	mv	a0,s0
    80000432:	00002097          	auipc	ra,0x2
    80000436:	a64080e7          	jalr	-1436(ra) # 0x80001e96
    8000043a:	04050793          	addi	a5,a0,64
    8000043e:	00278533          	add	a0,a5,sp
    80000442:	fc050023          	sb	zero,-64(a0)
    80000446:	850a                	mv	a0,sp
    80000448:	00001097          	auipc	ra,0x1
    8000044c:	6c4080e7          	jalr	1732(ra) # 0x80001b0c
    80000450:	00004517          	auipc	a0,0x4
    80000454:	be850513          	addi	a0,a0,-1048 # 0x80004038
    80000458:	00001097          	auipc	ra,0x1
    8000045c:	6b4080e7          	jalr	1716(ra) # 0x80001b0c
    80000460:	860a                	mv	a2,sp
    80000462:	000885b7          	lui	a1,0x88
    80000466:	15bd                	addi	a1,a1,-17 # 0x87fef
    80000468:	05b2                	slli	a1,a1,0xc
    8000046a:	8522                	mv	a0,s0
    8000046c:	00002097          	auipc	ra,0x2
    80000470:	a2a080e7          	jalr	-1494(ra) # 0x80001e96
    80000474:	04050793          	addi	a5,a0,64
    80000478:	00278533          	add	a0,a5,sp
    8000047c:	fc050023          	sb	zero,-64(a0)
    80000480:	850a                	mv	a0,sp
    80000482:	00001097          	auipc	ra,0x1
    80000486:	68a080e7          	jalr	1674(ra) # 0x80001b0c
    8000048a:	00004517          	auipc	a0,0x4
    8000048e:	bb650513          	addi	a0,a0,-1098 # 0x80004040
    80000492:	00001097          	auipc	ra,0x1
    80000496:	67a080e7          	jalr	1658(ra) # 0x80001b0c
    8000049a:	00444503          	lbu	a0,4(s0)
    8000049e:	00001097          	auipc	ra,0x1
    800004a2:	708080e7          	jalr	1800(ra) # 0x80001ba6
    800004a6:	00004517          	auipc	a0,0x4
    800004aa:	aaa50513          	addi	a0,a0,-1366 # 0x80003f50
    800004ae:	00001097          	auipc	ra,0x1
    800004b2:	65e080e7          	jalr	1630(ra) # 0x80001b0c
    800004b6:	01242023          	sw	s2,0(s0)
    800004ba:	00004517          	auipc	a0,0x4
    800004be:	ba650513          	addi	a0,a0,-1114 # 0x80004060
    800004c2:	00001097          	auipc	ra,0x1
    800004c6:	64a080e7          	jalr	1610(ra) # 0x80001b0c
    800004ca:	4681                	li	a3,0
    800004cc:	860a                	mv	a2,sp
    800004ce:	000805b7          	lui	a1,0x80
    800004d2:	8522                	mv	a0,s0
    800004d4:	00002097          	auipc	ra,0x2
    800004d8:	8dc080e7          	jalr	-1828(ra) # 0x80001db0
    800004dc:	04050793          	addi	a5,a0,64
    800004e0:	00278533          	add	a0,a5,sp
    800004e4:	fc050023          	sb	zero,-64(a0)
    800004e8:	850a                	mv	a0,sp
    800004ea:	00001097          	auipc	ra,0x1
    800004ee:	622080e7          	jalr	1570(ra) # 0x80001b0c
    800004f2:	00004517          	auipc	a0,0x4
    800004f6:	b3e50513          	addi	a0,a0,-1218 # 0x80004030
    800004fa:	00001097          	auipc	ra,0x1
    800004fe:	612080e7          	jalr	1554(ra) # 0x80001b0c
    80000502:	860a                	mv	a2,sp
    80000504:	4581                	li	a1,0
    80000506:	8522                	mv	a0,s0
    80000508:	00002097          	auipc	ra,0x2
    8000050c:	98e080e7          	jalr	-1650(ra) # 0x80001e96
    80000510:	04050793          	addi	a5,a0,64
    80000514:	00278533          	add	a0,a5,sp
    80000518:	fc050023          	sb	zero,-64(a0)
    8000051c:	850a                	mv	a0,sp
    8000051e:	00001097          	auipc	ra,0x1
    80000522:	5ee080e7          	jalr	1518(ra) # 0x80001b0c
    80000526:	00004517          	auipc	a0,0x4
    8000052a:	b1250513          	addi	a0,a0,-1262 # 0x80004038
    8000052e:	00001097          	auipc	ra,0x1
    80000532:	5de080e7          	jalr	1502(ra) # 0x80001b0c
    80000536:	860a                	mv	a2,sp
    80000538:	200005b7          	lui	a1,0x20000
    8000053c:	15fd                	addi	a1,a1,-1 # 0x1fffffff
    8000053e:	8522                	mv	a0,s0
    80000540:	00002097          	auipc	ra,0x2
    80000544:	956080e7          	jalr	-1706(ra) # 0x80001e96
    80000548:	04050793          	addi	a5,a0,64
    8000054c:	00278533          	add	a0,a5,sp
    80000550:	fc050023          	sb	zero,-64(a0)
    80000554:	850a                	mv	a0,sp
    80000556:	00001097          	auipc	ra,0x1
    8000055a:	5b6080e7          	jalr	1462(ra) # 0x80001b0c
    8000055e:	00004517          	auipc	a0,0x4
    80000562:	ae250513          	addi	a0,a0,-1310 # 0x80004040
    80000566:	00001097          	auipc	ra,0x1
    8000056a:	5a6080e7          	jalr	1446(ra) # 0x80001b0c
    8000056e:	00444503          	lbu	a0,4(s0)
    80000572:	00001097          	auipc	ra,0x1
    80000576:	634080e7          	jalr	1588(ra) # 0x80001ba6
    8000057a:	00004517          	auipc	a0,0x4
    8000057e:	9d650513          	addi	a0,a0,-1578 # 0x80003f50
    80000582:	00001097          	auipc	ra,0x1
    80000586:	58a080e7          	jalr	1418(ra) # 0x80001b0c
    8000058a:	01242023          	sw	s2,0(s0)
    8000058e:	00004517          	auipc	a0,0x4
    80000592:	aea50513          	addi	a0,a0,-1302 # 0x80004078
    80000596:	00001097          	auipc	ra,0x1
    8000059a:	576080e7          	jalr	1398(ra) # 0x80001b0c
    8000059e:	609c                	ld	a5,0(s1)
    800005a0:	02279583          	lh	a1,34(a5)
    800005a4:	0005871b          	sext.w	a4,a1
    800005a8:	57fd                	li	a5,-1
    800005aa:	22f70663          	beq	a4,a5,0x800007d6
    800005ae:	860a                	mv	a2,sp
    800005b0:	8522                	mv	a0,s0
    800005b2:	00002097          	auipc	ra,0x2
    800005b6:	8bc080e7          	jalr	-1860(ra) # 0x80001e6e
    800005ba:	04050793          	addi	a5,a0,64
    800005be:	00278533          	add	a0,a5,sp
    800005c2:	fc050023          	sb	zero,-64(a0)
    800005c6:	850a                	mv	a0,sp
    800005c8:	00001097          	auipc	ra,0x1
    800005cc:	544080e7          	jalr	1348(ra) # 0x80001b0c
    800005d0:	00004517          	auipc	a0,0x4
    800005d4:	ac050513          	addi	a0,a0,-1344 # 0x80004090
    800005d8:	00001097          	auipc	ra,0x1
    800005dc:	534080e7          	jalr	1332(ra) # 0x80001b0c
    800005e0:	4681                	li	a3,0
    800005e2:	860a                	mv	a2,sp
    800005e4:	4585                	li	a1,1
    800005e6:	8522                	mv	a0,s0
    800005e8:	00001097          	auipc	ra,0x1
    800005ec:	7c8080e7          	jalr	1992(ra) # 0x80001db0
    800005f0:	04050793          	addi	a5,a0,64
    800005f4:	00278533          	add	a0,a5,sp
    800005f8:	fc050023          	sb	zero,-64(a0)
    800005fc:	850a                	mv	a0,sp
    800005fe:	00001097          	auipc	ra,0x1
    80000602:	50e080e7          	jalr	1294(ra) # 0x80001b0c
    80000606:	00004517          	auipc	a0,0x4
    8000060a:	e5250513          	addi	a0,a0,-430 # 0x80004458
    8000060e:	00001097          	auipc	ra,0x1
    80000612:	4fe080e7          	jalr	1278(ra) # 0x80001b0c
    80000616:	00400517          	auipc	a0,0x400
    8000061a:	c4654503          	lbu	a0,-954(a0) # 0x8040025c
    8000061e:	00001097          	auipc	ra,0x1
    80000622:	588080e7          	jalr	1416(ra) # 0x80001ba6
    80000626:	00004517          	auipc	a0,0x4
    8000062a:	92a50513          	addi	a0,a0,-1750 # 0x80003f50
    8000062e:	00001097          	auipc	ra,0x1
    80000632:	4de080e7          	jalr	1246(ra) # 0x80001b0c
    80000636:	47a9                	li	a5,10
    80000638:	00400717          	auipc	a4,0x400
    8000063c:	c2f72023          	sw	a5,-992(a4) # 0x80400258
    80000640:	00004517          	auipc	a0,0x4
    80000644:	a7850513          	addi	a0,a0,-1416 # 0x800040b8
    80000648:	00001097          	auipc	ra,0x1
    8000064c:	4c4080e7          	jalr	1220(ra) # 0x80001b0c
    80000650:	609c                	ld	a5,0(s1)
    80000652:	53d8                	lw	a4,36(a5)
    80000654:	57fd                	li	a5,-1
    80000656:	1af70963          	beq	a4,a5,0x80000808
    8000065a:	00004517          	auipc	a0,0x4
    8000065e:	a7650513          	addi	a0,a0,-1418 # 0x800040d0
    80000662:	00001097          	auipc	ra,0x1
    80000666:	4aa080e7          	jalr	1194(ra) # 0x80001b0c
    8000066a:	609c                	ld	a5,0(s1)
    8000066c:	860a                	mv	a2,sp
    8000066e:	53cc                	lw	a1,36(a5)
    80000670:	00400517          	auipc	a0,0x400
    80000674:	be850513          	addi	a0,a0,-1048 # 0x80400258
    80000678:	00001097          	auipc	ra,0x1
    8000067c:	7f6080e7          	jalr	2038(ra) # 0x80001e6e
    80000680:	04050793          	addi	a5,a0,64
    80000684:	00278533          	add	a0,a5,sp
    80000688:	fc050023          	sb	zero,-64(a0)
    8000068c:	850a                	mv	a0,sp
    8000068e:	00001097          	auipc	ra,0x1
    80000692:	47e080e7          	jalr	1150(ra) # 0x80001b0c
    80000696:	00004517          	auipc	a0,0x4
    8000069a:	a4250513          	addi	a0,a0,-1470 # 0x800040d8
    8000069e:	00001097          	auipc	ra,0x1
    800006a2:	46e080e7          	jalr	1134(ra) # 0x80001b0c
    800006a6:	609c                	ld	a5,0(s1)
    800006a8:	860a                	mv	a2,sp
    800006aa:	578c                	lw	a1,40(a5)
    800006ac:	00400517          	auipc	a0,0x400
    800006b0:	bac50513          	addi	a0,a0,-1108 # 0x80400258
    800006b4:	00001097          	auipc	ra,0x1
    800006b8:	7ba080e7          	jalr	1978(ra) # 0x80001e6e
    800006bc:	04050793          	addi	a5,a0,64
    800006c0:	00278533          	add	a0,a5,sp
    800006c4:	fc050023          	sb	zero,-64(a0)
    800006c8:	850a                	mv	a0,sp
    800006ca:	00001097          	auipc	ra,0x1
    800006ce:	442080e7          	jalr	1090(ra) # 0x80001b0c
    800006d2:	00004517          	auipc	a0,0x4
    800006d6:	a0650513          	addi	a0,a0,-1530 # 0x800040d8
    800006da:	00001097          	auipc	ra,0x1
    800006de:	432080e7          	jalr	1074(ra) # 0x80001b0c
    800006e2:	609c                	ld	a5,0(s1)
    800006e4:	860a                	mv	a2,sp
    800006e6:	57cc                	lw	a1,44(a5)
    800006e8:	00400517          	auipc	a0,0x400
    800006ec:	b7050513          	addi	a0,a0,-1168 # 0x80400258
    800006f0:	00001097          	auipc	ra,0x1
    800006f4:	77e080e7          	jalr	1918(ra) # 0x80001e6e
    800006f8:	04050793          	addi	a5,a0,64
    800006fc:	00278533          	add	a0,a5,sp
    80000700:	fc050023          	sb	zero,-64(a0)
    80000704:	850a                	mv	a0,sp
    80000706:	00001097          	auipc	ra,0x1
    8000070a:	406080e7          	jalr	1030(ra) # 0x80001b0c
    8000070e:	00004517          	auipc	a0,0x4
    80000712:	d4a50513          	addi	a0,a0,-694 # 0x80004458
    80000716:	00001097          	auipc	ra,0x1
    8000071a:	3f6080e7          	jalr	1014(ra) # 0x80001b0c
    8000071e:	00400517          	auipc	a0,0x400
    80000722:	b3e54503          	lbu	a0,-1218(a0) # 0x8040025c
    80000726:	00001097          	auipc	ra,0x1
    8000072a:	480080e7          	jalr	1152(ra) # 0x80001ba6
    8000072e:	00004517          	auipc	a0,0x4
    80000732:	82250513          	addi	a0,a0,-2014 # 0x80003f50
    80000736:	00001097          	auipc	ra,0x1
    8000073a:	3d6080e7          	jalr	982(ra) # 0x80001b0c
    8000073e:	47a9                	li	a5,10
    80000740:	00400717          	auipc	a4,0x400
    80000744:	b0f72c23          	sw	a5,-1256(a4) # 0x80400258
    80000748:	609c                	ld	a5,0(s1)
    8000074a:	73b8                	ld	a4,96(a5)
    8000074c:	57fd                	li	a5,-1
    8000074e:	0ef71663          	bne	a4,a5,0x8000083a
    80000752:	00400517          	auipc	a0,0x400
    80000756:	b0a54503          	lbu	a0,-1270(a0) # 0x8040025c
    8000075a:	00001097          	auipc	ra,0x1
    8000075e:	44c080e7          	jalr	1100(ra) # 0x80001ba6
    80000762:	00003517          	auipc	a0,0x3
    80000766:	7ee50513          	addi	a0,a0,2030 # 0x80003f50
    8000076a:	00001097          	auipc	ra,0x1
    8000076e:	3a2080e7          	jalr	930(ra) # 0x80001b0c
    80000772:	47a9                	li	a5,10
    80000774:	00400717          	auipc	a4,0x400
    80000778:	aef72223          	sw	a5,-1308(a4) # 0x80400258
    8000077c:	70a6                	ld	ra,104(sp)
    8000077e:	7406                	ld	s0,96(sp)
    80000780:	64e6                	ld	s1,88(sp)
    80000782:	6946                	ld	s2,80(sp)
    80000784:	69a6                	ld	s3,72(sp)
    80000786:	6165                	addi	sp,sp,112
    80000788:	8082                	ret
    8000078a:	00400417          	auipc	s0,0x400
    8000078e:	ac640413          	addi	s0,s0,-1338 # 0x80400250
    80000792:	00040223          	sb	zero,4(s0)
    80000796:	00001097          	auipc	ra,0x1
    8000079a:	40e080e7          	jalr	1038(ra) # 0x80001ba4
    8000079e:	4785                	li	a5,1
    800007a0:	00f40223          	sb	a5,4(s0)
    800007a4:	00003517          	auipc	a0,0x3
    800007a8:	77450513          	addi	a0,a0,1908 # 0x80003f18
    800007ac:	00001097          	auipc	ra,0x1
    800007b0:	360080e7          	jalr	864(ra) # 0x80001b0c
    800007b4:	00444503          	lbu	a0,4(s0)
    800007b8:	00001097          	auipc	ra,0x1
    800007bc:	3ee080e7          	jalr	1006(ra) # 0x80001ba6
    800007c0:	00003517          	auipc	a0,0x3
    800007c4:	79050513          	addi	a0,a0,1936 # 0x80003f50
    800007c8:	00001097          	auipc	ra,0x1
    800007cc:	344080e7          	jalr	836(ra) # 0x80001b0c
    800007d0:	47a9                	li	a5,10
    800007d2:	c01c                	sw	a5,0(s0)
    800007d4:	b299                	j	0x8000011a
    800007d6:	00004517          	auipc	a0,0x4
    800007da:	8c250513          	addi	a0,a0,-1854 # 0x80004098
    800007de:	00001097          	auipc	ra,0x1
    800007e2:	32e080e7          	jalr	814(ra) # 0x80001b0c
    800007e6:	00400517          	auipc	a0,0x400
    800007ea:	a7654503          	lbu	a0,-1418(a0) # 0x8040025c
    800007ee:	00001097          	auipc	ra,0x1
    800007f2:	3b8080e7          	jalr	952(ra) # 0x80001ba6
    800007f6:	00003517          	auipc	a0,0x3
    800007fa:	75a50513          	addi	a0,a0,1882 # 0x80003f50
    800007fe:	00001097          	auipc	ra,0x1
    80000802:	30e080e7          	jalr	782(ra) # 0x80001b0c
    80000806:	bd05                	j	0x80000636
    80000808:	00004517          	auipc	a0,0x4
    8000080c:	89050513          	addi	a0,a0,-1904 # 0x80004098
    80000810:	00001097          	auipc	ra,0x1
    80000814:	2fc080e7          	jalr	764(ra) # 0x80001b0c
    80000818:	00400517          	auipc	a0,0x400
    8000081c:	a4454503          	lbu	a0,-1468(a0) # 0x8040025c
    80000820:	00001097          	auipc	ra,0x1
    80000824:	386080e7          	jalr	902(ra) # 0x80001ba6
    80000828:	00003517          	auipc	a0,0x3
    8000082c:	72850513          	addi	a0,a0,1832 # 0x80003f50
    80000830:	00001097          	auipc	ra,0x1
    80000834:	2dc080e7          	jalr	732(ra) # 0x80001b0c
    80000838:	b719                	j	0x8000073e
    8000083a:	00004517          	auipc	a0,0x4
    8000083e:	8a650513          	addi	a0,a0,-1882 # 0x800040e0
    80000842:	00001097          	auipc	ra,0x1
    80000846:	2ca080e7          	jalr	714(ra) # 0x80001b0c
    8000084a:	609c                	ld	a5,0(s1)
    8000084c:	4681                	li	a3,0
    8000084e:	860a                	mv	a2,sp
    80000850:	2087a583          	lw	a1,520(a5)
    80000854:	00400517          	auipc	a0,0x400
    80000858:	a0450513          	addi	a0,a0,-1532 # 0x80400258
    8000085c:	00001097          	auipc	ra,0x1
    80000860:	554080e7          	jalr	1364(ra) # 0x80001db0
    80000864:	04050793          	addi	a5,a0,64
    80000868:	00278533          	add	a0,a5,sp
    8000086c:	fc050023          	sb	zero,-64(a0)
    80000870:	850a                	mv	a0,sp
    80000872:	00001097          	auipc	ra,0x1
    80000876:	29a080e7          	jalr	666(ra) # 0x80001b0c
    8000087a:	00004517          	auipc	a0,0x4
    8000087e:	87e50513          	addi	a0,a0,-1922 # 0x800040f8
    80000882:	00001097          	auipc	ra,0x1
    80000886:	28a080e7          	jalr	650(ra) # 0x80001b0c
    8000088a:	00400517          	auipc	a0,0x400
    8000088e:	9d254503          	lbu	a0,-1582(a0) # 0x8040025c
    80000892:	00001097          	auipc	ra,0x1
    80000896:	314080e7          	jalr	788(ra) # 0x80001ba6
    8000089a:	00003517          	auipc	a0,0x3
    8000089e:	6b650513          	addi	a0,a0,1718 # 0x80003f50
    800008a2:	00001097          	auipc	ra,0x1
    800008a6:	26a080e7          	jalr	618(ra) # 0x80001b0c
    800008aa:	47a9                	li	a5,10
    800008ac:	00400717          	auipc	a4,0x400
    800008b0:	9af72623          	sw	a5,-1620(a4) # 0x80400258
    800008b4:	bd79                	j	0x80000752
    800008b6:	1141                	addi	sp,sp,-16
    800008b8:	e406                	sd	ra,8(sp)
    800008ba:	e022                	sd	s0,0(sp)
    800008bc:	00000097          	auipc	ra,0x0
    800008c0:	544080e7          	jalr	1348(ra) # 0x80000e00
    800008c4:	00400417          	auipc	s0,0x400
    800008c8:	98c40413          	addi	s0,s0,-1652 # 0x80400250
    800008cc:	00040223          	sb	zero,4(s0)
    800008d0:	00001097          	auipc	ra,0x1
    800008d4:	2d4080e7          	jalr	724(ra) # 0x80001ba4
    800008d8:	4785                	li	a5,1
    800008da:	00f40223          	sb	a5,4(s0)
    800008de:	00004517          	auipc	a0,0x4
    800008e2:	82250513          	addi	a0,a0,-2014 # 0x80004100
    800008e6:	00001097          	auipc	ra,0x1
    800008ea:	226080e7          	jalr	550(ra) # 0x80001b0c
    800008ee:	00444503          	lbu	a0,4(s0)
    800008f2:	00001097          	auipc	ra,0x1
    800008f6:	2b4080e7          	jalr	692(ra) # 0x80001ba6
    800008fa:	00003517          	auipc	a0,0x3
    800008fe:	65650513          	addi	a0,a0,1622 # 0x80003f50
    80000902:	00001097          	auipc	ra,0x1
    80000906:	20a080e7          	jalr	522(ra) # 0x80001b0c
    8000090a:	47a9                	li	a5,10
    8000090c:	c01c                	sw	a5,0(s0)
    8000090e:	60a2                	ld	ra,8(sp)
    80000910:	6402                	ld	s0,0(sp)
    80000912:	0141                	addi	sp,sp,16
    80000914:	8082                	ret
    80000916:	711d                	addi	sp,sp,-96
    80000918:	ec86                	sd	ra,88(sp)
    8000091a:	e8a2                	sd	s0,80(sp)
    8000091c:	e4a6                	sd	s1,72(sp)
    8000091e:	e0ca                	sd	s2,64(sp)
    80000920:	00003517          	auipc	a0,0x3
    80000924:	7f850513          	addi	a0,a0,2040 # 0x80004118
    80000928:	00001097          	auipc	ra,0x1
    8000092c:	1e4080e7          	jalr	484(ra) # 0x80001b0c
    80000930:	00400417          	auipc	s0,0x400
    80000934:	92840413          	addi	s0,s0,-1752 # 0x80400258
    80000938:	00400517          	auipc	a0,0x400
    8000093c:	92454503          	lbu	a0,-1756(a0) # 0x8040025c
    80000940:	00001097          	auipc	ra,0x1
    80000944:	266080e7          	jalr	614(ra) # 0x80001ba6
    80000948:	00003517          	auipc	a0,0x3
    8000094c:	60850513          	addi	a0,a0,1544 # 0x80003f50
    80000950:	00001097          	auipc	ra,0x1
    80000954:	1bc080e7          	jalr	444(ra) # 0x80001b0c
    80000958:	44a9                	li	s1,10
    8000095a:	c004                	sw	s1,0(s0)
    8000095c:	00003517          	auipc	a0,0x3
    80000960:	7ec50513          	addi	a0,a0,2028 # 0x80004148
    80000964:	00001097          	auipc	ra,0x1
    80000968:	1a8080e7          	jalr	424(ra) # 0x80001b0c
    8000096c:	4681                	li	a3,0
    8000096e:	860a                	mv	a2,sp
    80000970:	002005b7          	lui	a1,0x200
    80000974:	8522                	mv	a0,s0
    80000976:	00001097          	auipc	ra,0x1
    8000097a:	43a080e7          	jalr	1082(ra) # 0x80001db0
    8000097e:	04050793          	addi	a5,a0,64
    80000982:	978a                	add	a5,a5,sp
    80000984:	fc078023          	sb	zero,-64(a5)
    80000988:	850a                	mv	a0,sp
    8000098a:	00001097          	auipc	ra,0x1
    8000098e:	182080e7          	jalr	386(ra) # 0x80001b0c
    80000992:	00444503          	lbu	a0,4(s0)
    80000996:	00001097          	auipc	ra,0x1
    8000099a:	210080e7          	jalr	528(ra) # 0x80001ba6
    8000099e:	00003517          	auipc	a0,0x3
    800009a2:	5b250513          	addi	a0,a0,1458 # 0x80003f50
    800009a6:	00001097          	auipc	ra,0x1
    800009aa:	166080e7          	jalr	358(ra) # 0x80001b0c
    800009ae:	c004                	sw	s1,0(s0)
    800009b0:	00003517          	auipc	a0,0x3
    800009b4:	7b050513          	addi	a0,a0,1968 # 0x80004160
    800009b8:	00001097          	auipc	ra,0x1
    800009bc:	154080e7          	jalr	340(ra) # 0x80001b0c
    800009c0:	4681                	li	a3,0
    800009c2:	860a                	mv	a2,sp
    800009c4:	000885b7          	lui	a1,0x88
    800009c8:	8522                	mv	a0,s0
    800009ca:	00001097          	auipc	ra,0x1
    800009ce:	3e6080e7          	jalr	998(ra) # 0x80001db0
    800009d2:	04050793          	addi	a5,a0,64
    800009d6:	978a                	add	a5,a5,sp
    800009d8:	fc078023          	sb	zero,-64(a5)
    800009dc:	850a                	mv	a0,sp
    800009de:	00001097          	auipc	ra,0x1
    800009e2:	12e080e7          	jalr	302(ra) # 0x80001b0c
    800009e6:	00444503          	lbu	a0,4(s0)
    800009ea:	00001097          	auipc	ra,0x1
    800009ee:	1bc080e7          	jalr	444(ra) # 0x80001ba6
    800009f2:	00003517          	auipc	a0,0x3
    800009f6:	55e50513          	addi	a0,a0,1374 # 0x80003f50
    800009fa:	00001097          	auipc	ra,0x1
    800009fe:	112080e7          	jalr	274(ra) # 0x80001b0c
    80000a02:	c004                	sw	s1,0(s0)
    80000a04:	00003517          	auipc	a0,0x3
    80000a08:	76450513          	addi	a0,a0,1892 # 0x80004168
    80000a0c:	00001097          	auipc	ra,0x1
    80000a10:	100080e7          	jalr	256(ra) # 0x80001b0c
    80000a14:	4681                	li	a3,0
    80000a16:	860a                	mv	a2,sp
    80000a18:	4585                	li	a1,1
    80000a1a:	8522                	mv	a0,s0
    80000a1c:	00001097          	auipc	ra,0x1
    80000a20:	394080e7          	jalr	916(ra) # 0x80001db0
    80000a24:	04050793          	addi	a5,a0,64
    80000a28:	978a                	add	a5,a5,sp
    80000a2a:	fc078023          	sb	zero,-64(a5)
    80000a2e:	850a                	mv	a0,sp
    80000a30:	00001097          	auipc	ra,0x1
    80000a34:	0dc080e7          	jalr	220(ra) # 0x80001b0c
    80000a38:	00444503          	lbu	a0,4(s0)
    80000a3c:	00001097          	auipc	ra,0x1
    80000a40:	16a080e7          	jalr	362(ra) # 0x80001ba6
    80000a44:	00003517          	auipc	a0,0x3
    80000a48:	50c50513          	addi	a0,a0,1292 # 0x80003f50
    80000a4c:	00001097          	auipc	ra,0x1
    80000a50:	0c0080e7          	jalr	192(ra) # 0x80001b0c
    80000a54:	c004                	sw	s1,0(s0)
    80000a56:	00003517          	auipc	a0,0x3
    80000a5a:	72250513          	addi	a0,a0,1826 # 0x80004178
    80000a5e:	00001097          	auipc	ra,0x1
    80000a62:	0ae080e7          	jalr	174(ra) # 0x80001b0c
    80000a66:	4681                	li	a3,0
    80000a68:	860a                	mv	a2,sp
    80000a6a:	4581                	li	a1,0
    80000a6c:	8522                	mv	a0,s0
    80000a6e:	00001097          	auipc	ra,0x1
    80000a72:	342080e7          	jalr	834(ra) # 0x80001db0
    80000a76:	04050793          	addi	a5,a0,64
    80000a7a:	978a                	add	a5,a5,sp
    80000a7c:	fc078023          	sb	zero,-64(a5)
    80000a80:	850a                	mv	a0,sp
    80000a82:	00001097          	auipc	ra,0x1
    80000a86:	08a080e7          	jalr	138(ra) # 0x80001b0c
    80000a8a:	00444503          	lbu	a0,4(s0)
    80000a8e:	00001097          	auipc	ra,0x1
    80000a92:	118080e7          	jalr	280(ra) # 0x80001ba6
    80000a96:	00003517          	auipc	a0,0x3
    80000a9a:	4ba50513          	addi	a0,a0,1210 # 0x80003f50
    80000a9e:	00001097          	auipc	ra,0x1
    80000aa2:	06e080e7          	jalr	110(ra) # 0x80001b0c
    80000aa6:	c004                	sw	s1,0(s0)
    80000aa8:	00003517          	auipc	a0,0x3
    80000aac:	6e050513          	addi	a0,a0,1760 # 0x80004188
    80000ab0:	00001097          	auipc	ra,0x1
    80000ab4:	05c080e7          	jalr	92(ra) # 0x80001b0c
    80000ab8:	4681                	li	a3,0
    80000aba:	860a                	mv	a2,sp
    80000abc:	4585                	li	a1,1
    80000abe:	8522                	mv	a0,s0
    80000ac0:	00001097          	auipc	ra,0x1
    80000ac4:	2f0080e7          	jalr	752(ra) # 0x80001db0
    80000ac8:	04050793          	addi	a5,a0,64
    80000acc:	978a                	add	a5,a5,sp
    80000ace:	fc078023          	sb	zero,-64(a5)
    80000ad2:	850a                	mv	a0,sp
    80000ad4:	00001097          	auipc	ra,0x1
    80000ad8:	038080e7          	jalr	56(ra) # 0x80001b0c
    80000adc:	00444503          	lbu	a0,4(s0)
    80000ae0:	00001097          	auipc	ra,0x1
    80000ae4:	0c6080e7          	jalr	198(ra) # 0x80001ba6
    80000ae8:	00003517          	auipc	a0,0x3
    80000aec:	46850513          	addi	a0,a0,1128 # 0x80003f50
    80000af0:	00001097          	auipc	ra,0x1
    80000af4:	01c080e7          	jalr	28(ra) # 0x80001b0c
    80000af8:	c004                	sw	s1,0(s0)
    80000afa:	002007b7          	lui	a5,0x200
    80000afe:	17fd                	addi	a5,a5,-1 # 0x1fffff
    80000b00:	fffd                	bnez	a5,0x80000afe
    80000b02:	00003517          	auipc	a0,0x3
    80000b06:	69e50513          	addi	a0,a0,1694 # 0x800041a0
    80000b0a:	00001097          	auipc	ra,0x1
    80000b0e:	002080e7          	jalr	2(ra) # 0x80001b0c
    80000b12:	003ff417          	auipc	s0,0x3ff
    80000b16:	74640413          	addi	s0,s0,1862 # 0x80400258
    80000b1a:	003ff517          	auipc	a0,0x3ff
    80000b1e:	74254503          	lbu	a0,1858(a0) # 0x8040025c
    80000b22:	00001097          	auipc	ra,0x1
    80000b26:	084080e7          	jalr	132(ra) # 0x80001ba6
    80000b2a:	00003517          	auipc	a0,0x3
    80000b2e:	42650513          	addi	a0,a0,1062 # 0x80003f50
    80000b32:	00001097          	auipc	ra,0x1
    80000b36:	fda080e7          	jalr	-38(ra) # 0x80001b0c
    80000b3a:	44a9                	li	s1,10
    80000b3c:	c004                	sw	s1,0(s0)
    80000b3e:	00003517          	auipc	a0,0x3
    80000b42:	67250513          	addi	a0,a0,1650 # 0x800041b0
    80000b46:	00001097          	auipc	ra,0x1
    80000b4a:	fc6080e7          	jalr	-58(ra) # 0x80001b0c
    80000b4e:	00444503          	lbu	a0,4(s0)
    80000b52:	00001097          	auipc	ra,0x1
    80000b56:	054080e7          	jalr	84(ra) # 0x80001ba6
    80000b5a:	00003517          	auipc	a0,0x3
    80000b5e:	3f650513          	addi	a0,a0,1014 # 0x80003f50
    80000b62:	00001097          	auipc	ra,0x1
    80000b66:	faa080e7          	jalr	-86(ra) # 0x80001b0c
    80000b6a:	c004                	sw	s1,0(s0)
    80000b6c:	003ff917          	auipc	s2,0x3ff
    80000b70:	73490913          	addi	s2,s2,1844 # 0x804002a0
    80000b74:	47dde7b7          	lui	a5,0x47dde
    80000b78:	0785                	addi	a5,a5,1 # 0x47dde001
    80000b7a:	00f93023          	sd	a5,0(s2)
    80000b7e:	00003517          	auipc	a0,0x3
    80000b82:	64a50513          	addi	a0,a0,1610 # 0x800041c8
    80000b86:	00001097          	auipc	ra,0x1
    80000b8a:	f86080e7          	jalr	-122(ra) # 0x80001b0c
    80000b8e:	00444503          	lbu	a0,4(s0)
    80000b92:	00001097          	auipc	ra,0x1
    80000b96:	014080e7          	jalr	20(ra) # 0x80001ba6
    80000b9a:	00003517          	auipc	a0,0x3
    80000b9e:	3b650513          	addi	a0,a0,950 # 0x80003f50
    80000ba2:	00001097          	auipc	ra,0x1
    80000ba6:	f6a080e7          	jalr	-150(ra) # 0x80001b0c
    80000baa:	c004                	sw	s1,0(s0)
    80000bac:	12000073          	sfence.vma
    80000bb0:	00003517          	auipc	a0,0x3
    80000bb4:	62850513          	addi	a0,a0,1576 # 0x800041d8
    80000bb8:	00001097          	auipc	ra,0x1
    80000bbc:	f54080e7          	jalr	-172(ra) # 0x80001b0c
    80000bc0:	00444503          	lbu	a0,4(s0)
    80000bc4:	00001097          	auipc	ra,0x1
    80000bc8:	fe2080e7          	jalr	-30(ra) # 0x80001ba6
    80000bcc:	00003517          	auipc	a0,0x3
    80000bd0:	38450513          	addi	a0,a0,900 # 0x80003f50
    80000bd4:	00001097          	auipc	ra,0x1
    80000bd8:	f38080e7          	jalr	-200(ra) # 0x80001b0c
    80000bdc:	c004                	sw	s1,0(s0)
    80000bde:	00093783          	ld	a5,0(s2)
    80000be2:	83b1                	srli	a5,a5,0xc
    80000be4:	577d                	li	a4,-1
    80000be6:	177e                	slli	a4,a4,0x3f
    80000be8:	8fd9                	or	a5,a5,a4
    80000bea:	18079073          	csrw	satp,a5
    80000bee:	00003517          	auipc	a0,0x3
    80000bf2:	5fa50513          	addi	a0,a0,1530 # 0x800041e8
    80000bf6:	00001097          	auipc	ra,0x1
    80000bfa:	f16080e7          	jalr	-234(ra) # 0x80001b0c
    80000bfe:	00444503          	lbu	a0,4(s0)
    80000c02:	00001097          	auipc	ra,0x1
    80000c06:	fa4080e7          	jalr	-92(ra) # 0x80001ba6
    80000c0a:	00003517          	auipc	a0,0x3
    80000c0e:	34650513          	addi	a0,a0,838 # 0x80003f50
    80000c12:	00001097          	auipc	ra,0x1
    80000c16:	efa080e7          	jalr	-262(ra) # 0x80001b0c
    80000c1a:	c004                	sw	s1,0(s0)
    80000c1c:	60e6                	ld	ra,88(sp)
    80000c1e:	6446                	ld	s0,80(sp)
    80000c20:	64a6                	ld	s1,72(sp)
    80000c22:	6906                	ld	s2,64(sp)
    80000c24:	6125                	addi	sp,sp,96
    80000c26:	8082                	ret
    80000c28:	1101                	addi	sp,sp,-32
    80000c2a:	ec06                	sd	ra,24(sp)
    80000c2c:	e822                	sd	s0,16(sp)
    80000c2e:	e426                	sd	s1,8(sp)
    80000c30:	842a                	mv	s0,a0
    80000c32:	003ff797          	auipc	a5,0x3ff
    80000c36:	66678793          	addi	a5,a5,1638 # 0x80400298
    80000c3a:	00078023          	sb	zero,0(a5)
    80000c3e:	0007a223          	sw	zero,4(a5)
    80000c42:	10010737          	lui	a4,0x10010
    80000c46:	67c1                	lui	a5,0x10
    80000c48:	0785                	addi	a5,a5,1 # 0x10001
    80000c4a:	c71c                	sw	a5,8(a4)
    80000c4c:	c75c                	sw	a5,12(a4)
    80000c4e:	6785                	lui	a5,0x1
    80000c50:	0f378793          	addi	a5,a5,243 # 0x10f3
    80000c54:	cf1c                	sw	a5,24(a4)
    80000c56:	003ff797          	auipc	a5,0x3ff
    80000c5a:	6207ad23          	sw	zero,1594(a5) # 0x80400290
    80000c5e:	003ff797          	auipc	a5,0x3ff
    80000c62:	6207ab23          	sw	zero,1590(a5) # 0x80400294
    80000c66:	003ff517          	auipc	a0,0x3ff
    80000c6a:	5f654503          	lbu	a0,1526(a0) # 0x8040025c
    80000c6e:	00001097          	auipc	ra,0x1
    80000c72:	f38080e7          	jalr	-200(ra) # 0x80001ba6
    80000c76:	00003517          	auipc	a0,0x3
    80000c7a:	2da50513          	addi	a0,a0,730 # 0x80003f50
    80000c7e:	00001097          	auipc	ra,0x1
    80000c82:	e8e080e7          	jalr	-370(ra) # 0x80001b0c
    80000c86:	44a9                	li	s1,10
    80000c88:	003ff797          	auipc	a5,0x3ff
    80000c8c:	5c97a823          	sw	s1,1488(a5) # 0x80400258
    80000c90:	003ff517          	auipc	a0,0x3ff
    80000c94:	5c454503          	lbu	a0,1476(a0) # 0x80400254
    80000c98:	00001097          	auipc	ra,0x1
    80000c9c:	f0e080e7          	jalr	-242(ra) # 0x80001ba6
    80000ca0:	00003517          	auipc	a0,0x3
    80000ca4:	2b050513          	addi	a0,a0,688 # 0x80003f50
    80000ca8:	00001097          	auipc	ra,0x1
    80000cac:	e64080e7          	jalr	-412(ra) # 0x80001b0c
    80000cb0:	003ff797          	auipc	a5,0x3ff
    80000cb4:	5a97a023          	sw	s1,1440(a5) # 0x80400250
    80000cb8:	003ff797          	auipc	a5,0x3ff
    80000cbc:	34878793          	addi	a5,a5,840 # 0x80400000
    80000cc0:	e01c                	sd	a5,0(s0)
    80000cc2:	0207d703          	lhu	a4,32(a5)
    80000cc6:	4785                	li	a5,1
    80000cc8:	00e7f663          	bgeu	a5,a4,0x80000cd4
    80000ccc:	003ff717          	auipc	a4,0x3ff
    80000cd0:	34f71a23          	sh	a5,852(a4) # 0x80400020
    80000cd4:	878a                	mv	a5,sp
    80000cd6:	8522                	mv	a0,s0
    80000cd8:	fffff097          	auipc	ra,0xfffff
    80000cdc:	428080e7          	jalr	1064(ra) # 0x80000100
    80000ce0:	8522                	mv	a0,s0
    80000ce2:	00000097          	auipc	ra,0x0
    80000ce6:	c34080e7          	jalr	-972(ra) # 0x80000916
    80000cea:	8522                	mv	a0,s0
    80000cec:	00000097          	auipc	ra,0x0
    80000cf0:	bca080e7          	jalr	-1078(ra) # 0x800008b6
    80000cf4:	60e2                	ld	ra,24(sp)
    80000cf6:	6442                	ld	s0,16(sp)
    80000cf8:	64a2                	ld	s1,8(sp)
    80000cfa:	6105                	addi	sp,sp,32
    80000cfc:	8082                	ret
    80000cfe:	1101                	addi	sp,sp,-32
    80000d00:	ec06                	sd	ra,24(sp)
    80000d02:	e822                	sd	s0,16(sp)
    80000d04:	003ff517          	auipc	a0,0x3ff
    80000d08:	55054503          	lbu	a0,1360(a0) # 0x80400254
    80000d0c:	00001097          	auipc	ra,0x1
    80000d10:	e9a080e7          	jalr	-358(ra) # 0x80001ba6
    80000d14:	00003517          	auipc	a0,0x3
    80000d18:	23c50513          	addi	a0,a0,572 # 0x80003f50
    80000d1c:	00001097          	auipc	ra,0x1
    80000d20:	df0080e7          	jalr	-528(ra) # 0x80001b0c
    80000d24:	4429                	li	s0,10
    80000d26:	003ff797          	auipc	a5,0x3ff
    80000d2a:	5287a523          	sw	s0,1322(a5) # 0x80400250
    80000d2e:	003ff517          	auipc	a0,0x3ff
    80000d32:	52e54503          	lbu	a0,1326(a0) # 0x8040025c
    80000d36:	00001097          	auipc	ra,0x1
    80000d3a:	e70080e7          	jalr	-400(ra) # 0x80001ba6
    80000d3e:	00003517          	auipc	a0,0x3
    80000d42:	21250513          	addi	a0,a0,530 # 0x80003f50
    80000d46:	00001097          	auipc	ra,0x1
    80000d4a:	dc6080e7          	jalr	-570(ra) # 0x80001b0c
    80000d4e:	003ff797          	auipc	a5,0x3ff
    80000d52:	5087a523          	sw	s0,1290(a5) # 0x80400258
    80000d56:	0028                	addi	a0,sp,8
    80000d58:	00000097          	auipc	ra,0x0
    80000d5c:	ed0080e7          	jalr	-304(ra) # 0x80000c28
    80000d60:	60e2                	ld	ra,24(sp)
    80000d62:	6442                	ld	s0,16(sp)
    80000d64:	6105                	addi	sp,sp,32
    80000d66:	8082                	ret
	...
    80000e00:	fffff097          	auipc	ra,0xfffff
    80000e04:	27e080e7          	jalr	638(ra) # 0x8000007e
    80000e08:	00000013          	nop
    80000e0c:	00000013          	nop
    80000e10:	00000013          	nop
    80000e14:	00000013          	nop
    80000e18:	00000013          	nop
    80000e1c:	00000013          	nop
    80000e20:	00000013          	nop
    80000e24:	00000013          	nop
    80000e28:	00000013          	nop
    80000e2c:	00000013          	nop
    80000e30:	00000013          	nop
    80000e34:	00000013          	nop
    80000e38:	00000013          	nop
    80000e3c:	00000013          	nop
    80000e40:	00000013          	nop
    80000e44:	00000013          	nop
    80000e48:	00000013          	nop
    80000e4c:	00000013          	nop
    80000e50:	00000013          	nop
    80000e54:	00000013          	nop
    80000e58:	00000013          	nop
    80000e5c:	00000013          	nop
    80000e60:	00000013          	nop
    80000e64:	00000013          	nop
    80000e68:	00000013          	nop
    80000e6c:	00000013          	nop
    80000e70:	00000013          	nop
    80000e74:	00000013          	nop
    80000e78:	00000013          	nop
    80000e7c:	00000013          	nop
    80000e80:	00000013          	nop
    80000e84:	00000013          	nop
    80000e88:	00000013          	nop
    80000e8c:	00000013          	nop
    80000e90:	00000013          	nop
    80000e94:	00000013          	nop
    80000e98:	00000013          	nop
    80000e9c:	00000013          	nop
    80000ea0:	00000013          	nop
    80000ea4:	00000013          	nop
    80000ea8:	00000013          	nop
    80000eac:	00000013          	nop
    80000eb0:	00000013          	nop
    80000eb4:	00000013          	nop
    80000eb8:	00000013          	nop
    80000ebc:	00000013          	nop
    80000ec0:	00000013          	nop
    80000ec4:	00000013          	nop
    80000ec8:	00000013          	nop
    80000ecc:	00000013          	nop
    80000ed0:	00000013          	nop
    80000ed4:	00000013          	nop
    80000ed8:	00000013          	nop
    80000edc:	00000013          	nop
    80000ee0:	00000013          	nop
    80000ee4:	00000013          	nop
    80000ee8:	00000013          	nop
    80000eec:	00000013          	nop
    80000ef0:	00000013          	nop
    80000ef4:	00000013          	nop
    80000ef8:	00000013          	nop
    80000efc:	00000013          	nop
    80000f00:	00000097          	auipc	ra,0x0
    80000f04:	28a080e7          	jalr	650(ra) # 0x8000118a
    80000f08:	1161                	addi	sp,sp,-8
    80000f0a:	e02a                	sd	a0,0(sp)
    80000f0c:	00003097          	auipc	ra,0x3
    80000f10:	fce080e7          	jalr	-50(ra) # 0x80003eda
    80000f14:	6502                	ld	a0,0(sp)
    80000f16:	00001097          	auipc	ra,0x1
    80000f1a:	bd6080e7          	jalr	-1066(ra) # 0x80001aec
	...
    80000ffa:	0000                	unimp
    80000ffc:	6d1c                	ld	a5,24(a0)
    80000ffe:	6598                	ld	a4,8(a1)
    80001000:	97ba                	add	a5,a5,a4
    80001002:	ed1c                	sd	a5,24(a0)
    80001004:	0006b023          	sd	zero,0(a3)
    80001008:	00063023          	sd	zero,0(a2)
    8000100c:	0005b303          	ld	t1,0(a1) # 0x88000
    80001010:	0085b883          	ld	a7,8(a1)
    80001014:	08b2                	slli	a7,a7,0xc
    80001016:	989a                	add	a7,a7,t1
    80001018:	651c                	ld	a5,8(a0)
    8000101a:	c3dd                	beqz	a5,0x800010c0
    8000101c:	873e                	mv	a4,a5
    8000101e:	00073803          	ld	a6,0(a4)
    80001022:	01088463          	beq	a7,a6,0x8000102a
    80001026:	6f18                	ld	a4,24(a4)
    80001028:	fb7d                	bnez	a4,0x8000101e
    8000102a:	0087b883          	ld	a7,8(a5)
    8000102e:	08b2                	slli	a7,a7,0xc
    80001030:	0007b803          	ld	a6,0(a5)
    80001034:	9846                	add	a6,a6,a7
    80001036:	09030763          	beq	t1,a6,0x800010c4
    8000103a:	6f9c                	ld	a5,24(a5)
    8000103c:	f7fd                	bnez	a5,0x8000102a
    8000103e:	01053803          	ld	a6,16(a0)
    80001042:	611c                	ld	a5,0(a0)
    80001044:	cb99                	beqz	a5,0x8000105a
    80001046:	00b83c23          	sd	a1,24(a6)
    8000104a:	691c                	ld	a5,16(a0)
    8000104c:	e99c                	sd	a5,16(a1)
    8000104e:	0005bc23          	sd	zero,24(a1)
    80001052:	e90c                	sd	a1,16(a0)
    80001054:	611c                	ld	a5,0(a0)
    80001056:	0785                	addi	a5,a5,1
    80001058:	a809                	j	0x8000106a
    8000105a:	0005b823          	sd	zero,16(a1)
    8000105e:	0005bc23          	sd	zero,24(a1)
    80001062:	e50c                	sd	a1,8(a0)
    80001064:	e90c                	sd	a1,16(a0)
    80001066:	611c                	ld	a5,0(a0)
    80001068:	0785                	addi	a5,a5,1
    8000106a:	e11c                	sd	a5,0(a0)
    8000106c:	4781                	li	a5,0
    8000106e:	ef21                	bnez	a4,0x800010c6
    80001070:	8082                	ret
    80001072:	00053423          	sd	zero,8(a0)
    80001076:	00053823          	sd	zero,16(a0)
    8000107a:	00053023          	sd	zero,0(a0)
    8000107e:	a059                	j	0x80001104
    80001080:	08080263          	beqz	a6,0x80001104
    80001084:	00853803          	ld	a6,8(a0)
    80001088:	01883803          	ld	a6,24(a6)
    8000108c:	01053423          	sd	a6,8(a0)
    80001090:	00083823          	sd	zero,16(a6)
    80001094:	00053803          	ld	a6,0(a0)
    80001098:	187d                	addi	a6,a6,-1
    8000109a:	01053023          	sd	a6,0(a0)
    8000109e:	a09d                	j	0x80001104
    800010a0:	06080263          	beqz	a6,0x80001104
    800010a4:	01053803          	ld	a6,16(a0)
    800010a8:	01083803          	ld	a6,16(a6)
    800010ac:	01053823          	sd	a6,16(a0)
    800010b0:	00083c23          	sd	zero,24(a6)
    800010b4:	00053803          	ld	a6,0(a0)
    800010b8:	187d                	addi	a6,a6,-1
    800010ba:	01053023          	sd	a6,0(a0)
    800010be:	a099                	j	0x80001104
    800010c0:	873e                	mv	a4,a5
    800010c2:	bfb5                	j	0x8000103e
    800010c4:	c331                	beqz	a4,0x80001108
    800010c6:	0085b803          	ld	a6,8(a1)
    800010ca:	00873883          	ld	a7,8(a4)
    800010ce:	9846                	add	a6,a6,a7
    800010d0:	0105b423          	sd	a6,8(a1)
    800010d4:	00053803          	ld	a6,0(a0)
    800010d8:	4885                	li	a7,1
    800010da:	f9180ce3          	beq	a6,a7,0x80001072
    800010de:	01073303          	ld	t1,16(a4)
    800010e2:	f8030fe3          	beqz	t1,0x80001080
    800010e6:	01873883          	ld	a7,24(a4)
    800010ea:	fa088be3          	beqz	a7,0x800010a0
    800010ee:	01133c23          	sd	a7,24(t1)
    800010f2:	01073803          	ld	a6,16(a4)
    800010f6:	0108b823          	sd	a6,16(a7)
    800010fa:	00053803          	ld	a6,0(a0)
    800010fe:	187d                	addi	a6,a6,-1
    80001100:	01053023          	sd	a6,0(a0)
    80001104:	e218                	sd	a4,0(a2)
    80001106:	c799                	beqz	a5,0x80001114
    80001108:	6798                	ld	a4,8(a5)
    8000110a:	6590                	ld	a2,8(a1)
    8000110c:	9732                	add	a4,a4,a2
    8000110e:	e798                	sd	a4,8(a5)
    80001110:	e28c                	sd	a1,0(a3)
    80001112:	8082                	ret
    80001114:	8082                	ret
    80001116:	1101                	addi	sp,sp,-32
    80001118:	ec06                	sd	ra,24(sp)
    8000111a:	000885b7          	lui	a1,0x88
    8000111e:	15bd                	addi	a1,a1,-17 # 0x87fef
    80001120:	05b2                	slli	a1,a1,0xc
    80001122:	e18c                	sd	a1,0(a1)
    80001124:	47c1                	li	a5,16
    80001126:	e59c                	sd	a5,8(a1)
    80001128:	0005b823          	sd	zero,16(a1)
    8000112c:	0005bc23          	sd	zero,24(a1)
    80001130:	0034                	addi	a3,sp,8
    80001132:	860a                	mv	a2,sp
    80001134:	003ff517          	auipc	a0,0x3ff
    80001138:	2dc50513          	addi	a0,a0,732 # 0x80400410
    8000113c:	00000097          	auipc	ra,0x0
    80001140:	ec0080e7          	jalr	-320(ra) # 0x80000ffc
    80001144:	003ff797          	auipc	a5,0x3ff
    80001148:	19c7b783          	ld	a5,412(a5) # 0x804002e0
    8000114c:	6398                	ld	a4,0(a5)
    8000114e:	0200c7b7          	lui	a5,0x200c
    80001152:	ff87a783          	lw	a5,-8(a5) # 0x200bff8
    80001156:	3e87879b          	addiw	a5,a5,1000
    8000115a:	020046b7          	lui	a3,0x2004
    8000115e:	c29c                	sw	a5,0(a3)
    80001160:	6708                	ld	a0,8(a4)
    80001162:	00003097          	auipc	ra,0x3
    80001166:	baa080e7          	jalr	-1110(ra) # 0x80003d0c
    8000116a:	60e2                	ld	ra,24(sp)
    8000116c:	6105                	addi	sp,sp,32
    8000116e:	8082                	ret
    80001170:	1141                	addi	sp,sp,-16
    80001172:	e406                	sd	ra,8(sp)
    80001174:	003ff517          	auipc	a0,0x3ff
    80001178:	0ac50513          	addi	a0,a0,172 # 0x80400220
    8000117c:	00000097          	auipc	ra,0x0
    80001180:	f9a080e7          	jalr	-102(ra) # 0x80001116
    80001184:	60a2                	ld	ra,8(sp)
    80001186:	0141                	addi	sp,sp,16
    80001188:	8082                	ret
    8000118a:	7159                	addi	sp,sp,-112
    8000118c:	f486                	sd	ra,104(sp)
    8000118e:	f0a2                	sd	s0,96(sp)
    80001190:	eca6                	sd	s1,88(sp)
    80001192:	e8ca                	sd	s2,80(sp)
    80001194:	00003517          	auipc	a0,0x3
    80001198:	06450513          	addi	a0,a0,100 # 0x800041f8
    8000119c:	00001097          	auipc	ra,0x1
    800011a0:	970080e7          	jalr	-1680(ra) # 0x80001b0c
    800011a4:	003ff517          	auipc	a0,0x3ff
    800011a8:	08854503          	lbu	a0,136(a0) # 0x8040022c
    800011ac:	00001097          	auipc	ra,0x1
    800011b0:	9fa080e7          	jalr	-1542(ra) # 0x80001ba6
    800011b4:	00003517          	auipc	a0,0x3
    800011b8:	d9c50513          	addi	a0,a0,-612 # 0x80003f50
    800011bc:	00001097          	auipc	ra,0x1
    800011c0:	950080e7          	jalr	-1712(ra) # 0x80001b0c
    800011c4:	47a9                	li	a5,10
    800011c6:	003ff717          	auipc	a4,0x3ff
    800011ca:	06f72123          	sw	a5,98(a4) # 0x80400228
    800011ce:	47bd                	li	a5,15
    800011d0:	c4be                	sw	a5,72(sp)
    800011d2:	003ff517          	auipc	a0,0x3ff
    800011d6:	08e53503          	ld	a0,142(a0) # 0x80400260
    800011da:	651c                	ld	a5,8(a0)
    800011dc:	cf81                	beqz	a5,0x800011f4
    800011de:	04f00693          	li	a3,79
    800011e2:	03000613          	li	a2,48
    800011e6:	6798                	ld	a4,8(a5)
    800011e8:	06e6e863          	bltu	a3,a4,0x80001258
    800011ec:	06c70663          	beq	a4,a2,0x80001258
    800011f0:	6f9c                	ld	a5,24(a5)
    800011f2:	fbf5                	bnez	a5,0x800011e6
    800011f4:	03000593          	li	a1,48
    800011f8:	00001097          	auipc	ra,0x1
    800011fc:	ae0080e7          	jalr	-1312(ra) # 0x80001cd8
    80001200:	4481                	li	s1,0
    80001202:	a8a5                	j	0x8000127a
    80001204:	6118                	ld	a4,0(a0)
    80001206:	4685                	li	a3,1
    80001208:	00d70d63          	beq	a4,a3,0x80001222
    8000120c:	6b90                	ld	a2,16(a5)
    8000120e:	c20d                	beqz	a2,0x80001230
    80001210:	6f94                	ld	a3,24(a5)
    80001212:	ca8d                	beqz	a3,0x80001244
    80001214:	ee14                	sd	a3,24(a2)
    80001216:	6b98                	ld	a4,16(a5)
    80001218:	ea98                	sd	a4,16(a3)
    8000121a:	6118                	ld	a4,0(a0)
    8000121c:	177d                	addi	a4,a4,-1
    8000121e:	e118                	sd	a4,0(a0)
    80001220:	a0a9                	j	0x8000126a
    80001222:	00053423          	sd	zero,8(a0)
    80001226:	00053823          	sd	zero,16(a0)
    8000122a:	00053023          	sd	zero,0(a0)
    8000122e:	a835                	j	0x8000126a
    80001230:	cf0d                	beqz	a4,0x8000126a
    80001232:	6518                	ld	a4,8(a0)
    80001234:	6f18                	ld	a4,24(a4)
    80001236:	e518                	sd	a4,8(a0)
    80001238:	00073823          	sd	zero,16(a4)
    8000123c:	6118                	ld	a4,0(a0)
    8000123e:	177d                	addi	a4,a4,-1
    80001240:	e118                	sd	a4,0(a0)
    80001242:	a025                	j	0x8000126a
    80001244:	c31d                	beqz	a4,0x8000126a
    80001246:	6918                	ld	a4,16(a0)
    80001248:	6b18                	ld	a4,16(a4)
    8000124a:	e918                	sd	a4,16(a0)
    8000124c:	00073c23          	sd	zero,24(a4)
    80001250:	6118                	ld	a4,0(a0)
    80001252:	177d                	addi	a4,a4,-1
    80001254:	e118                	sd	a4,0(a0)
    80001256:	a811                	j	0x8000126a
    80001258:	fd070713          	addi	a4,a4,-48
    8000125c:	e798                	sd	a4,8(a5)
    8000125e:	6d18                	ld	a4,24(a0)
    80001260:	fd070713          	addi	a4,a4,-48
    80001264:	ed18                	sd	a4,24(a0)
    80001266:	6798                	ld	a4,8(a5)
    80001268:	df51                	beqz	a4,0x80001204
    8000126a:	6398                	ld	a4,0(a5)
    8000126c:	679c                	ld	a5,8(a5)
    8000126e:	97ba                	add	a5,a5,a4
    80001270:	00878493          	addi	s1,a5,8
    80001274:	03000713          	li	a4,48
    80001278:	e398                	sd	a4,0(a5)
    8000127a:	00b0                	addi	a2,sp,72
    8000127c:	6585                	lui	a1,0x1
    8000127e:	8526                	mv	a0,s1
    80001280:	00001097          	auipc	ra,0x1
    80001284:	fd2080e7          	jalr	-46(ra) # 0x80002252
    80001288:	00003517          	auipc	a0,0x3
    8000128c:	f8050513          	addi	a0,a0,-128 # 0x80004208
    80001290:	00001097          	auipc	ra,0x1
    80001294:	87c080e7          	jalr	-1924(ra) # 0x80001b0c
    80001298:	003ff417          	auipc	s0,0x3ff
    8000129c:	f9040413          	addi	s0,s0,-112 # 0x80400228
    800012a0:	4681                	li	a3,0
    800012a2:	0030                	addi	a2,sp,8
    800012a4:	20100793          	li	a5,513
    800012a8:	07da                	slli	a5,a5,0x16
    800012aa:	438c                	lw	a1,0(a5)
    800012ac:	8522                	mv	a0,s0
    800012ae:	00001097          	auipc	ra,0x1
    800012b2:	b02080e7          	jalr	-1278(ra) # 0x80001db0
    800012b6:	05050793          	addi	a5,a0,80
    800012ba:	00278533          	add	a0,a5,sp
    800012be:	fa050c23          	sb	zero,-72(a0)
    800012c2:	0028                	addi	a0,sp,8
    800012c4:	00001097          	auipc	ra,0x1
    800012c8:	848080e7          	jalr	-1976(ra) # 0x80001b0c
    800012cc:	00444503          	lbu	a0,4(s0)
    800012d0:	00001097          	auipc	ra,0x1
    800012d4:	8d6080e7          	jalr	-1834(ra) # 0x80001ba6
    800012d8:	00003517          	auipc	a0,0x3
    800012dc:	c7850513          	addi	a0,a0,-904 # 0x80003f50
    800012e0:	00001097          	auipc	ra,0x1
    800012e4:	82c080e7          	jalr	-2004(ra) # 0x80001b0c
    800012e8:	4929                	li	s2,10
    800012ea:	01242023          	sw	s2,0(s0)
    800012ee:	00003517          	auipc	a0,0x3
    800012f2:	f2a50513          	addi	a0,a0,-214 # 0x80004218
    800012f6:	00001097          	auipc	ra,0x1
    800012fa:	816080e7          	jalr	-2026(ra) # 0x80001b0c
    800012fe:	0030                	addi	a2,sp,8
    80001300:	85a6                	mv	a1,s1
    80001302:	8522                	mv	a0,s0
    80001304:	00001097          	auipc	ra,0x1
    80001308:	b92080e7          	jalr	-1134(ra) # 0x80001e96
    8000130c:	05050793          	addi	a5,a0,80
    80001310:	00278533          	add	a0,a5,sp
    80001314:	fa050c23          	sb	zero,-72(a0)
    80001318:	0028                	addi	a0,sp,8
    8000131a:	00000097          	auipc	ra,0x0
    8000131e:	7f2080e7          	jalr	2034(ra) # 0x80001b0c
    80001322:	00444503          	lbu	a0,4(s0)
    80001326:	00001097          	auipc	ra,0x1
    8000132a:	880080e7          	jalr	-1920(ra) # 0x80001ba6
    8000132e:	00003517          	auipc	a0,0x3
    80001332:	c2250513          	addi	a0,a0,-990 # 0x80003f50
    80001336:	00000097          	auipc	ra,0x0
    8000133a:	7d6080e7          	jalr	2006(ra) # 0x80001b0c
    8000133e:	01242023          	sw	s2,0(s0)
    80001342:	4501                	li	a0,0
    80001344:	70a6                	ld	ra,104(sp)
    80001346:	7406                	ld	s0,96(sp)
    80001348:	64e6                	ld	s1,88(sp)
    8000134a:	6946                	ld	s2,80(sp)
    8000134c:	6165                	addi	sp,sp,112
    8000134e:	8082                	ret
    80001350:	003ff797          	auipc	a5,0x3ff
    80001354:	ed878793          	addi	a5,a5,-296 # 0x80400228
    80001358:	4729                	li	a4,10
    8000135a:	c398                	sw	a4,0(a5)
    8000135c:	00078223          	sb	zero,4(a5)
    80001360:	8082                	ret
    80001362:	003ff797          	auipc	a5,0x3ff
    80001366:	ed678793          	addi	a5,a5,-298 # 0x80400238
    8000136a:	4729                	li	a4,10
    8000136c:	c398                	sw	a4,0(a5)
    8000136e:	00078223          	sb	zero,4(a5)
    80001372:	003ff797          	auipc	a5,0x3ff
    80001376:	ebe78793          	addi	a5,a5,-322 # 0x80400230
    8000137a:	c398                	sw	a4,0(a5)
    8000137c:	00078223          	sb	zero,4(a5)
    80001380:	8082                	ret
    80001382:	003ff797          	auipc	a5,0x3ff
    80001386:	0967b783          	ld	a5,150(a5) # 0x80400418
    8000138a:	26078d63          	beqz	a5,0x80001604
    8000138e:	7175                	addi	sp,sp,-144
    80001390:	e506                	sd	ra,136(sp)
    80001392:	e122                	sd	s0,128(sp)
    80001394:	fca6                	sd	s1,120(sp)
    80001396:	f8ca                	sd	s2,112(sp)
    80001398:	f4ce                	sd	s3,104(sp)
    8000139a:	f0d2                	sd	s4,96(sp)
    8000139c:	ecd6                	sd	s5,88(sp)
    8000139e:	e8da                	sd	s6,80(sp)
    800013a0:	e4de                	sd	s7,72(sp)
    800013a2:	0087ab83          	lw	s7,8(a5)
    800013a6:	060b8263          	beqz	s7,0x8000140a
    800013aa:	003ff497          	auipc	s1,0x3ff
    800013ae:	eb648493          	addi	s1,s1,-330 # 0x80400260
    800013b2:	003ff417          	auipc	s0,0x3ff
    800013b6:	05e40413          	addi	s0,s0,94 # 0x80400410
    800013ba:	497d                	li	s2,31
    800013bc:	4a05                	li	s4,1
    800013be:	003ff997          	auipc	s3,0x3ff
    800013c2:	e9298993          	addi	s3,s3,-366 # 0x80400250
    800013c6:	00003b17          	auipc	s6,0x3
    800013ca:	e62b0b13          	addi	s6,s6,-414 # 0x80004228
    800013ce:	00003a97          	auipc	s5,0x3
    800013d2:	e72a8a93          	addi	s5,s5,-398 # 0x80004240
    800013d6:	a275                	j	0x80001582
    800013d8:	6014                	ld	a3,0(s0)
    800013da:	01468c63          	beq	a3,s4,0x800013f2
    800013de:	6b8c                	ld	a1,16(a5)
    800013e0:	c1a1                	beqz	a1,0x80001420
    800013e2:	6f90                	ld	a2,24(a5)
    800013e4:	ce39                	beqz	a2,0x80001442
    800013e6:	ed90                	sd	a2,24(a1)
    800013e8:	6b8c                	ld	a1,16(a5)
    800013ea:	ea0c                	sd	a1,16(a2)
    800013ec:	16fd                	addi	a3,a3,-1 # 0x2003fff
    800013ee:	e014                	sd	a3,0(s0)
    800013f0:	aa95                	j	0x80001564
    800013f2:	00043423          	sd	zero,8(s0)
    800013f6:	00043823          	sd	zero,16(s0)
    800013fa:	00043023          	sd	zero,0(s0)
    800013fe:	6794                	ld	a3,8(a5)
    80001400:	06b2                	slli	a3,a3,0xc
    80001402:	6388                	ld	a0,0(a5)
    80001404:	9536                	add	a0,a0,a3
    80001406:	16051463          	bnez	a0,0x8000156e
    8000140a:	60aa                	ld	ra,136(sp)
    8000140c:	640a                	ld	s0,128(sp)
    8000140e:	74e6                	ld	s1,120(sp)
    80001410:	7946                	ld	s2,112(sp)
    80001412:	79a6                	ld	s3,104(sp)
    80001414:	7a06                	ld	s4,96(sp)
    80001416:	6ae6                	ld	s5,88(sp)
    80001418:	6b46                	ld	s6,80(sp)
    8000141a:	6ba6                	ld	s7,72(sp)
    8000141c:	6149                	addi	sp,sp,144
    8000141e:	8082                	ret
    80001420:	14068263          	beqz	a3,0x80001564
    80001424:	6410                	ld	a2,8(s0)
    80001426:	6e10                	ld	a2,24(a2)
    80001428:	e410                	sd	a2,8(s0)
    8000142a:	00063823          	sd	zero,16(a2)
    8000142e:	16fd                	addi	a3,a3,-1
    80001430:	e014                	sd	a3,0(s0)
    80001432:	6794                	ld	a3,8(a5)
    80001434:	06b2                	slli	a3,a3,0xc
    80001436:	6388                	ld	a0,0(a5)
    80001438:	9536                	add	a0,a0,a3
    8000143a:	12051a63          	bnez	a0,0x8000156e
    8000143e:	641c                	ld	a5,8(s0)
    80001440:	aa2d                	j	0x8000157a
    80001442:	12068163          	beqz	a3,0x80001564
    80001446:	6810                	ld	a2,16(s0)
    80001448:	6a10                	ld	a2,16(a2)
    8000144a:	e810                	sd	a2,16(s0)
    8000144c:	00063c23          	sd	zero,24(a2)
    80001450:	16fd                	addi	a3,a3,-1
    80001452:	e014                	sd	a3,0(s0)
    80001454:	aa01                	j	0x80001564
    80001456:	e108                	sd	a0,0(a0)
    80001458:	e518                	sd	a4,8(a0)
    8000145a:	00053823          	sd	zero,16(a0)
    8000145e:	00053c23          	sd	zero,24(a0)
    80001462:	01883783          	ld	a5,24(a6)
    80001466:	97ba                	add	a5,a5,a4
    80001468:	00f83c23          	sd	a5,24(a6)
    8000146c:	610c                	ld	a1,0(a0)
    8000146e:	6510                	ld	a2,8(a0)
    80001470:	962e                	add	a2,a2,a1
    80001472:	00883783          	ld	a5,8(a6)
    80001476:	cfe9                	beqz	a5,0x80001550
    80001478:	873e                	mv	a4,a5
    8000147a:	6314                	ld	a3,0(a4)
    8000147c:	00d60463          	beq	a2,a3,0x80001484
    80001480:	6f18                	ld	a4,24(a4)
    80001482:	ff65                	bnez	a4,0x8000147a
    80001484:	6394                	ld	a3,0(a5)
    80001486:	6790                	ld	a2,8(a5)
    80001488:	96b2                	add	a3,a3,a2
    8000148a:	08d58863          	beq	a1,a3,0x8000151a
    8000148e:	6f9c                	ld	a5,24(a5)
    80001490:	fbf5                	bnez	a5,0x80001484
    80001492:	01083683          	ld	a3,16(a6)
    80001496:	00083783          	ld	a5,0(a6)
    8000149a:	cf89                	beqz	a5,0x800014b4
    8000149c:	ee88                	sd	a0,24(a3)
    8000149e:	01083783          	ld	a5,16(a6)
    800014a2:	e91c                	sd	a5,16(a0)
    800014a4:	00053c23          	sd	zero,24(a0)
    800014a8:	00a83823          	sd	a0,16(a6)
    800014ac:	00083783          	ld	a5,0(a6)
    800014b0:	0785                	addi	a5,a5,1
    800014b2:	a821                	j	0x800014ca
    800014b4:	00053823          	sd	zero,16(a0)
    800014b8:	00053c23          	sd	zero,24(a0)
    800014bc:	00a83423          	sd	a0,8(a6)
    800014c0:	00a83823          	sd	a0,16(a6)
    800014c4:	00083783          	ld	a5,0(a6)
    800014c8:	0785                	addi	a5,a5,1
    800014ca:	00f83023          	sd	a5,0(a6)
    800014ce:	4781                	li	a5,0
    800014d0:	e731                	bnez	a4,0x8000151c
    800014d2:	a04d                	j	0x80001574
    800014d4:	00083423          	sd	zero,8(a6)
    800014d8:	00083823          	sd	zero,16(a6)
    800014dc:	00083023          	sd	zero,0(a6)
    800014e0:	a095                	j	0x80001544
    800014e2:	c2ad                	beqz	a3,0x80001544
    800014e4:	00883703          	ld	a4,8(a6)
    800014e8:	6f18                	ld	a4,24(a4)
    800014ea:	00e83423          	sd	a4,8(a6)
    800014ee:	00073823          	sd	zero,16(a4)
    800014f2:	00083703          	ld	a4,0(a6)
    800014f6:	177d                	addi	a4,a4,-1
    800014f8:	00e83023          	sd	a4,0(a6)
    800014fc:	a0a1                	j	0x80001544
    800014fe:	c2b9                	beqz	a3,0x80001544
    80001500:	01083703          	ld	a4,16(a6)
    80001504:	6b18                	ld	a4,16(a4)
    80001506:	00e83823          	sd	a4,16(a6)
    8000150a:	00073c23          	sd	zero,24(a4)
    8000150e:	00083703          	ld	a4,0(a6)
    80001512:	177d                	addi	a4,a4,-1
    80001514:	00e83023          	sd	a4,0(a6)
    80001518:	a035                	j	0x80001544
    8000151a:	c715                	beqz	a4,0x80001546
    8000151c:	6514                	ld	a3,8(a0)
    8000151e:	6710                	ld	a2,8(a4)
    80001520:	96b2                	add	a3,a3,a2
    80001522:	e514                	sd	a3,8(a0)
    80001524:	00083683          	ld	a3,0(a6)
    80001528:	fb4686e3          	beq	a3,s4,0x800014d4
    8000152c:	6b0c                	ld	a1,16(a4)
    8000152e:	d9d5                	beqz	a1,0x800014e2
    80001530:	6f10                	ld	a2,24(a4)
    80001532:	d671                	beqz	a2,0x800014fe
    80001534:	ed90                	sd	a2,24(a1)
    80001536:	6b18                	ld	a4,16(a4)
    80001538:	ea18                	sd	a4,16(a2)
    8000153a:	00083703          	ld	a4,0(a6)
    8000153e:	177d                	addi	a4,a4,-1
    80001540:	00e83023          	sd	a4,0(a6)
    80001544:	cb85                	beqz	a5,0x80001574
    80001546:	6798                	ld	a4,8(a5)
    80001548:	6514                	ld	a3,8(a0)
    8000154a:	9736                	add	a4,a4,a3
    8000154c:	e798                	sd	a4,8(a5)
    8000154e:	a01d                	j	0x80001574
    80001550:	873e                	mv	a4,a5
    80001552:	b781                	j	0x80001492
    80001554:	8e99                	sub	a3,a3,a4
    80001556:	e794                	sd	a3,8(a5)
    80001558:	6c14                	ld	a3,24(s0)
    8000155a:	8e99                	sub	a3,a3,a4
    8000155c:	ec14                	sd	a3,24(s0)
    8000155e:	6794                	ld	a3,8(a5)
    80001560:	e6068ce3          	beqz	a3,0x800013d8
    80001564:	6794                	ld	a3,8(a5)
    80001566:	06b2                	slli	a3,a3,0xc
    80001568:	6388                	ld	a0,0(a5)
    8000156a:	9536                	add	a0,a0,a3
    8000156c:	c501                	beqz	a0,0x80001574
    8000156e:	0732                	slli	a4,a4,0xc
    80001570:	eee963e3          	bltu	s2,a4,0x80001456
    80001574:	641c                	ld	a5,8(s0)
    80001576:	e8078ae3          	beqz	a5,0x8000140a
    8000157a:	0087ab83          	lw	s7,8(a5)
    8000157e:	e80b86e3          	beqz	s7,0x8000140a
    80001582:	0004b803          	ld	a6,0(s1)
    80001586:	020b9713          	slli	a4,s7,0x20
    8000158a:	9301                	srli	a4,a4,0x20
    8000158c:	641c                	ld	a5,8(s0)
    8000158e:	c791                	beqz	a5,0x8000159a
    80001590:	6794                	ld	a3,8(a5)
    80001592:	fce6f1e3          	bgeu	a3,a4,0x80001554
    80001596:	6f9c                	ld	a5,24(a5)
    80001598:	ffe5                	bnez	a5,0x80001590
    8000159a:	00098223          	sb	zero,4(s3)
    8000159e:	00000097          	auipc	ra,0x0
    800015a2:	606080e7          	jalr	1542(ra) # 0x80001ba4
    800015a6:	855a                	mv	a0,s6
    800015a8:	00000097          	auipc	ra,0x0
    800015ac:	564080e7          	jalr	1380(ra) # 0x80001b0c
    800015b0:	4681                	li	a3,0
    800015b2:	860a                	mv	a2,sp
    800015b4:	85de                	mv	a1,s7
    800015b6:	854e                	mv	a0,s3
    800015b8:	00000097          	auipc	ra,0x0
    800015bc:	7f8080e7          	jalr	2040(ra) # 0x80001db0
    800015c0:	04050793          	addi	a5,a0,64
    800015c4:	00278533          	add	a0,a5,sp
    800015c8:	fc050023          	sb	zero,-64(a0)
    800015cc:	850a                	mv	a0,sp
    800015ce:	00000097          	auipc	ra,0x0
    800015d2:	53e080e7          	jalr	1342(ra) # 0x80001b0c
    800015d6:	8556                	mv	a0,s5
    800015d8:	00000097          	auipc	ra,0x0
    800015dc:	534080e7          	jalr	1332(ra) # 0x80001b0c
    800015e0:	0049c503          	lbu	a0,4(s3)
    800015e4:	00000097          	auipc	ra,0x0
    800015e8:	5c2080e7          	jalr	1474(ra) # 0x80001ba6
    800015ec:	00003517          	auipc	a0,0x3
    800015f0:	96450513          	addi	a0,a0,-1692 # 0x80003f50
    800015f4:	00000097          	auipc	ra,0x0
    800015f8:	518080e7          	jalr	1304(ra) # 0x80001b0c
    800015fc:	47a9                	li	a5,10
    800015fe:	00f9a023          	sw	a5,0(s3)
    80001602:	bf8d                	j	0x80001574
    80001604:	8082                	ret
    80001606:	1141                	addi	sp,sp,-16
    80001608:	e406                	sd	ra,8(sp)
    8000160a:	003ff517          	auipc	a0,0x3ff
    8000160e:	c3650513          	addi	a0,a0,-970 # 0x80400240
    80001612:	00000097          	auipc	ra,0x0
    80001616:	d70080e7          	jalr	-656(ra) # 0x80001382
    8000161a:	60a2                	ld	ra,8(sp)
    8000161c:	0141                	addi	sp,sp,16
    8000161e:	8082                	ret
    80001620:	6d1c                	ld	a5,24(a0)
    80001622:	6598                	ld	a4,8(a1)
    80001624:	97ba                	add	a5,a5,a4
    80001626:	ed1c                	sd	a5,24(a0)
    80001628:	0006b023          	sd	zero,0(a3)
    8000162c:	00063023          	sd	zero,0(a2)
    80001630:	0005b303          	ld	t1,0(a1) # 0x1000
    80001634:	0085b883          	ld	a7,8(a1)
    80001638:	989a                	add	a7,a7,t1
    8000163a:	651c                	ld	a5,8(a0)
    8000163c:	c3d5                	beqz	a5,0x800016e0
    8000163e:	873e                	mv	a4,a5
    80001640:	00073803          	ld	a6,0(a4)
    80001644:	01088463          	beq	a7,a6,0x8000164c
    80001648:	6f18                	ld	a4,24(a4)
    8000164a:	fb7d                	bnez	a4,0x80001640
    8000164c:	0007b803          	ld	a6,0(a5)
    80001650:	0087b883          	ld	a7,8(a5)
    80001654:	9846                	add	a6,a6,a7
    80001656:	09030763          	beq	t1,a6,0x800016e4
    8000165a:	6f9c                	ld	a5,24(a5)
    8000165c:	fbe5                	bnez	a5,0x8000164c
    8000165e:	01053803          	ld	a6,16(a0)
    80001662:	611c                	ld	a5,0(a0)
    80001664:	cb99                	beqz	a5,0x8000167a
    80001666:	00b83c23          	sd	a1,24(a6)
    8000166a:	691c                	ld	a5,16(a0)
    8000166c:	e99c                	sd	a5,16(a1)
    8000166e:	0005bc23          	sd	zero,24(a1)
    80001672:	e90c                	sd	a1,16(a0)
    80001674:	611c                	ld	a5,0(a0)
    80001676:	0785                	addi	a5,a5,1
    80001678:	a809                	j	0x8000168a
    8000167a:	0005b823          	sd	zero,16(a1)
    8000167e:	0005bc23          	sd	zero,24(a1)
    80001682:	e50c                	sd	a1,8(a0)
    80001684:	e90c                	sd	a1,16(a0)
    80001686:	611c                	ld	a5,0(a0)
    80001688:	0785                	addi	a5,a5,1
    8000168a:	e11c                	sd	a5,0(a0)
    8000168c:	4781                	li	a5,0
    8000168e:	ef21                	bnez	a4,0x800016e6
    80001690:	8082                	ret
    80001692:	00053423          	sd	zero,8(a0)
    80001696:	00053823          	sd	zero,16(a0)
    8000169a:	00053023          	sd	zero,0(a0)
    8000169e:	a059                	j	0x80001724
    800016a0:	08080263          	beqz	a6,0x80001724
    800016a4:	00853803          	ld	a6,8(a0)
    800016a8:	01883803          	ld	a6,24(a6)
    800016ac:	01053423          	sd	a6,8(a0)
    800016b0:	00083823          	sd	zero,16(a6)
    800016b4:	00053803          	ld	a6,0(a0)
    800016b8:	187d                	addi	a6,a6,-1
    800016ba:	01053023          	sd	a6,0(a0)
    800016be:	a09d                	j	0x80001724
    800016c0:	06080263          	beqz	a6,0x80001724
    800016c4:	01053803          	ld	a6,16(a0)
    800016c8:	01083803          	ld	a6,16(a6)
    800016cc:	01053823          	sd	a6,16(a0)
    800016d0:	00083c23          	sd	zero,24(a6)
    800016d4:	00053803          	ld	a6,0(a0)
    800016d8:	187d                	addi	a6,a6,-1
    800016da:	01053023          	sd	a6,0(a0)
    800016de:	a099                	j	0x80001724
    800016e0:	873e                	mv	a4,a5
    800016e2:	bfb5                	j	0x8000165e
    800016e4:	c331                	beqz	a4,0x80001728
    800016e6:	0085b803          	ld	a6,8(a1)
    800016ea:	00873883          	ld	a7,8(a4)
    800016ee:	9846                	add	a6,a6,a7
    800016f0:	0105b423          	sd	a6,8(a1)
    800016f4:	00053803          	ld	a6,0(a0)
    800016f8:	4885                	li	a7,1
    800016fa:	f9180ce3          	beq	a6,a7,0x80001692
    800016fe:	01073303          	ld	t1,16(a4)
    80001702:	f8030fe3          	beqz	t1,0x800016a0
    80001706:	01873883          	ld	a7,24(a4)
    8000170a:	fa088be3          	beqz	a7,0x800016c0
    8000170e:	01133c23          	sd	a7,24(t1)
    80001712:	01073803          	ld	a6,16(a4)
    80001716:	0108b823          	sd	a6,16(a7)
    8000171a:	00053803          	ld	a6,0(a0)
    8000171e:	187d                	addi	a6,a6,-1
    80001720:	01053023          	sd	a6,0(a0)
    80001724:	e218                	sd	a4,0(a2)
    80001726:	c799                	beqz	a5,0x80001734
    80001728:	6798                	ld	a4,8(a5)
    8000172a:	6590                	ld	a2,8(a1)
    8000172c:	9732                	add	a4,a4,a2
    8000172e:	e798                	sd	a4,8(a5)
    80001730:	e28c                	sd	a1,0(a3)
    80001732:	8082                	ret
    80001734:	8082                	ret
    80001736:	711d                	addi	sp,sp,-96
    80001738:	ec86                	sd	ra,88(sp)
    8000173a:	e8a2                	sd	s0,80(sp)
    8000173c:	003ff797          	auipc	a5,0x3ff
    80001740:	ad47b783          	ld	a5,-1324(a5) # 0x80400210
    80001744:	12078563          	beqz	a5,0x8000186e
    80001748:	00001097          	auipc	ra,0x1
    8000174c:	63a080e7          	jalr	1594(ra) # 0x80002d82
    80001750:	003ff797          	auipc	a5,0x3ff
    80001754:	cc87b783          	ld	a5,-824(a5) # 0x80400418
    80001758:	cb81                	beqz	a5,0x80001768
    8000175a:	10f00693          	li	a3,271
    8000175e:	6798                	ld	a4,8(a5)
    80001760:	24e6ea63          	bltu	a3,a4,0x800019b4
    80001764:	6f9c                	ld	a5,24(a5)
    80001766:	ffe5                	bnez	a5,0x8000175e
    80001768:	003ff417          	auipc	s0,0x3ff
    8000176c:	ae840413          	addi	s0,s0,-1304 # 0x80400250
    80001770:	00040223          	sb	zero,4(s0)
    80001774:	00000097          	auipc	ra,0x0
    80001778:	430080e7          	jalr	1072(ra) # 0x80001ba4
    8000177c:	00003517          	auipc	a0,0x3
    80001780:	aac50513          	addi	a0,a0,-1364 # 0x80004228
    80001784:	00000097          	auipc	ra,0x0
    80001788:	388080e7          	jalr	904(ra) # 0x80001b0c
    8000178c:	4681                	li	a3,0
    8000178e:	0810                	addi	a2,sp,16
    80001790:	11000593          	li	a1,272
    80001794:	8522                	mv	a0,s0
    80001796:	00000097          	auipc	ra,0x0
    8000179a:	61a080e7          	jalr	1562(ra) # 0x80001db0
    8000179e:	05050793          	addi	a5,a0,80
    800017a2:	00278533          	add	a0,a5,sp
    800017a6:	fc050023          	sb	zero,-64(a0)
    800017aa:	0808                	addi	a0,sp,16
    800017ac:	00000097          	auipc	ra,0x0
    800017b0:	360080e7          	jalr	864(ra) # 0x80001b0c
    800017b4:	00003517          	auipc	a0,0x3
    800017b8:	a8c50513          	addi	a0,a0,-1396 # 0x80004240
    800017bc:	00000097          	auipc	ra,0x0
    800017c0:	350080e7          	jalr	848(ra) # 0x80001b0c
    800017c4:	00444503          	lbu	a0,4(s0)
    800017c8:	00000097          	auipc	ra,0x0
    800017cc:	3de080e7          	jalr	990(ra) # 0x80001ba6
    800017d0:	00002517          	auipc	a0,0x2
    800017d4:	78050513          	addi	a0,a0,1920 # 0x80003f50
    800017d8:	00000097          	auipc	ra,0x0
    800017dc:	334080e7          	jalr	820(ra) # 0x80001b0c
    800017e0:	47a9                	li	a5,10
    800017e2:	c01c                	sw	a5,0(s0)
    800017e4:	003ff797          	auipc	a5,0x3ff
    800017e8:	ac478793          	addi	a5,a5,-1340 # 0x804002a8
    800017ec:	00078023          	sb	zero,0(a5)
    800017f0:	000780a3          	sb	zero,1(a5)
    800017f4:	00078123          	sb	zero,2(a5)
    800017f8:	000781a3          	sb	zero,3(a5)
    800017fc:	00078223          	sb	zero,4(a5)
    80001800:	000782a3          	sb	zero,5(a5)
    80001804:	00078323          	sb	zero,6(a5)
    80001808:	000783a3          	sb	zero,7(a5)
    8000180c:	00078423          	sb	zero,8(a5)
    80001810:	000784a3          	sb	zero,9(a5)
    80001814:	00078523          	sb	zero,10(a5)
    80001818:	000785a3          	sb	zero,11(a5)
    8000181c:	00078623          	sb	zero,12(a5)
    80001820:	000786a3          	sb	zero,13(a5)
    80001824:	00078723          	sb	zero,14(a5)
    80001828:	000787a3          	sb	zero,15(a5)
    8000182c:	00078823          	sb	zero,16(a5)
    80001830:	000788a3          	sb	zero,17(a5)
    80001834:	00078923          	sb	zero,18(a5)
    80001838:	000789a3          	sb	zero,19(a5)
    8000183c:	00078a23          	sb	zero,20(a5)
    80001840:	00078aa3          	sb	zero,21(a5)
    80001844:	00078b23          	sb	zero,22(a5)
    80001848:	00078ba3          	sb	zero,23(a5)
    8000184c:	00078c23          	sb	zero,24(a5)
    80001850:	00078ca3          	sb	zero,25(a5)
    80001854:	00078d23          	sb	zero,26(a5)
    80001858:	00078da3          	sb	zero,27(a5)
    8000185c:	00078e23          	sb	zero,28(a5)
    80001860:	00078ea3          	sb	zero,29(a5)
    80001864:	00078f23          	sb	zero,30(a5)
    80001868:	00078fa3          	sb	zero,31(a5)
    8000186c:	ac21                	j	0x80001a84
    8000186e:	003ff417          	auipc	s0,0x3ff
    80001872:	9e240413          	addi	s0,s0,-1566 # 0x80400250
    80001876:	00040223          	sb	zero,4(s0)
    8000187a:	00000097          	auipc	ra,0x0
    8000187e:	32a080e7          	jalr	810(ra) # 0x80001ba4
    80001882:	4785                	li	a5,1
    80001884:	00f40223          	sb	a5,4(s0)
    80001888:	00003517          	auipc	a0,0x3
    8000188c:	9c050513          	addi	a0,a0,-1600 # 0x80004248
    80001890:	00000097          	auipc	ra,0x0
    80001894:	27c080e7          	jalr	636(ra) # 0x80001b0c
    80001898:	00003517          	auipc	a0,0x3
    8000189c:	9c850513          	addi	a0,a0,-1592 # 0x80004260
    800018a0:	00000097          	auipc	ra,0x0
    800018a4:	26c080e7          	jalr	620(ra) # 0x80001b0c
    800018a8:	00003517          	auipc	a0,0x3
    800018ac:	9c050513          	addi	a0,a0,-1600 # 0x80004268
    800018b0:	00000097          	auipc	ra,0x0
    800018b4:	25c080e7          	jalr	604(ra) # 0x80001b0c
    800018b8:	00003517          	auipc	a0,0x3
    800018bc:	9c050513          	addi	a0,a0,-1600 # 0x80004278
    800018c0:	00000097          	auipc	ra,0x0
    800018c4:	24c080e7          	jalr	588(ra) # 0x80001b0c
    800018c8:	00003517          	auipc	a0,0x3
    800018cc:	9f050513          	addi	a0,a0,-1552 # 0x800042b8
    800018d0:	00000097          	auipc	ra,0x0
    800018d4:	23c080e7          	jalr	572(ra) # 0x80001b0c
    800018d8:	00003517          	auipc	a0,0x3
    800018dc:	9e850513          	addi	a0,a0,-1560 # 0x800042c0
    800018e0:	00000097          	auipc	ra,0x0
    800018e4:	22c080e7          	jalr	556(ra) # 0x80001b0c
    800018e8:	00003517          	auipc	a0,0x3
    800018ec:	a2050513          	addi	a0,a0,-1504 # 0x80004308
    800018f0:	00000097          	auipc	ra,0x0
    800018f4:	21c080e7          	jalr	540(ra) # 0x80001b0c
    800018f8:	4681                	li	a3,0
    800018fa:	0810                	addi	a2,sp,16
    800018fc:	02800593          	li	a1,40
    80001900:	8522                	mv	a0,s0
    80001902:	00000097          	auipc	ra,0x0
    80001906:	4ae080e7          	jalr	1198(ra) # 0x80001db0
    8000190a:	05050793          	addi	a5,a0,80
    8000190e:	00278533          	add	a0,a5,sp
    80001912:	fc050023          	sb	zero,-64(a0)
    80001916:	0808                	addi	a0,sp,16
    80001918:	00000097          	auipc	ra,0x0
    8000191c:	1f4080e7          	jalr	500(ra) # 0x80001b0c
    80001920:	00444503          	lbu	a0,4(s0)
    80001924:	00000097          	auipc	ra,0x0
    80001928:	282080e7          	jalr	642(ra) # 0x80001ba6
    8000192c:	00002517          	auipc	a0,0x2
    80001930:	62450513          	addi	a0,a0,1572 # 0x80003f50
    80001934:	00000097          	auipc	ra,0x0
    80001938:	1d8080e7          	jalr	472(ra) # 0x80001b0c
    8000193c:	47a9                	li	a5,10
    8000193e:	c01c                	sw	a5,0(s0)
    80001940:	b521                	j	0x80001748
    80001942:	003ff717          	auipc	a4,0x3ff
    80001946:	ace73703          	ld	a4,-1330(a4) # 0x80400410
    8000194a:	4685                	li	a3,1
    8000194c:	00d70f63          	beq	a4,a3,0x8000196a
    80001950:	6b90                	ld	a2,16(a5)
    80001952:	c61d                	beqz	a2,0x80001980
    80001954:	6f94                	ld	a3,24(a5)
    80001956:	c2b1                	beqz	a3,0x8000199a
    80001958:	ee14                	sd	a3,24(a2)
    8000195a:	6b90                	ld	a2,16(a5)
    8000195c:	ea90                	sd	a2,16(a3)
    8000195e:	177d                	addi	a4,a4,-1
    80001960:	003ff697          	auipc	a3,0x3ff
    80001964:	aae6b823          	sd	a4,-1360(a3) # 0x80400410
    80001968:	a09d                	j	0x800019ce
    8000196a:	003ff717          	auipc	a4,0x3ff
    8000196e:	aa670713          	addi	a4,a4,-1370 # 0x80400410
    80001972:	00073423          	sd	zero,8(a4)
    80001976:	00073823          	sd	zero,16(a4)
    8000197a:	00073023          	sd	zero,0(a4)
    8000197e:	a881                	j	0x800019ce
    80001980:	c739                	beqz	a4,0x800019ce
    80001982:	003ff697          	auipc	a3,0x3ff
    80001986:	a8e68693          	addi	a3,a3,-1394 # 0x80400410
    8000198a:	6690                	ld	a2,8(a3)
    8000198c:	6e10                	ld	a2,24(a2)
    8000198e:	e690                	sd	a2,8(a3)
    80001990:	00063823          	sd	zero,16(a2)
    80001994:	177d                	addi	a4,a4,-1
    80001996:	e298                	sd	a4,0(a3)
    80001998:	a81d                	j	0x800019ce
    8000199a:	cb15                	beqz	a4,0x800019ce
    8000199c:	003ff697          	auipc	a3,0x3ff
    800019a0:	a7468693          	addi	a3,a3,-1420 # 0x80400410
    800019a4:	6a90                	ld	a2,16(a3)
    800019a6:	6a10                	ld	a2,16(a2)
    800019a8:	ea90                	sd	a2,16(a3)
    800019aa:	00063c23          	sd	zero,24(a2)
    800019ae:	177d                	addi	a4,a4,-1
    800019b0:	e298                	sd	a4,0(a3)
    800019b2:	a831                	j	0x800019ce
    800019b4:	ef070713          	addi	a4,a4,-272
    800019b8:	e798                	sd	a4,8(a5)
    800019ba:	003ff697          	auipc	a3,0x3ff
    800019be:	a5668693          	addi	a3,a3,-1450 # 0x80400410
    800019c2:	6e98                	ld	a4,24(a3)
    800019c4:	ef070713          	addi	a4,a4,-272
    800019c8:	ee98                	sd	a4,24(a3)
    800019ca:	6798                	ld	a4,8(a5)
    800019cc:	db3d                	beqz	a4,0x80001942
    800019ce:	6798                	ld	a4,8(a5)
    800019d0:	0732                	slli	a4,a4,0xc
    800019d2:	638c                	ld	a1,0(a5)
    800019d4:	95ba                	add	a1,a1,a4
    800019d6:	003ff797          	auipc	a5,0x3ff
    800019da:	8d278793          	addi	a5,a5,-1838 # 0x804002a8
    800019de:	00078023          	sb	zero,0(a5)
    800019e2:	000780a3          	sb	zero,1(a5)
    800019e6:	00078123          	sb	zero,2(a5)
    800019ea:	000781a3          	sb	zero,3(a5)
    800019ee:	00078223          	sb	zero,4(a5)
    800019f2:	000782a3          	sb	zero,5(a5)
    800019f6:	00078323          	sb	zero,6(a5)
    800019fa:	000783a3          	sb	zero,7(a5)
    800019fe:	00078423          	sb	zero,8(a5)
    80001a02:	000784a3          	sb	zero,9(a5)
    80001a06:	00078523          	sb	zero,10(a5)
    80001a0a:	000785a3          	sb	zero,11(a5)
    80001a0e:	00078623          	sb	zero,12(a5)
    80001a12:	000786a3          	sb	zero,13(a5)
    80001a16:	00078723          	sb	zero,14(a5)
    80001a1a:	000787a3          	sb	zero,15(a5)
    80001a1e:	00078823          	sb	zero,16(a5)
    80001a22:	000788a3          	sb	zero,17(a5)
    80001a26:	00078923          	sb	zero,18(a5)
    80001a2a:	000789a3          	sb	zero,19(a5)
    80001a2e:	00078a23          	sb	zero,20(a5)
    80001a32:	00078aa3          	sb	zero,21(a5)
    80001a36:	00078b23          	sb	zero,22(a5)
    80001a3a:	00078ba3          	sb	zero,23(a5)
    80001a3e:	00078c23          	sb	zero,24(a5)
    80001a42:	00078ca3          	sb	zero,25(a5)
    80001a46:	00078d23          	sb	zero,26(a5)
    80001a4a:	00078da3          	sb	zero,27(a5)
    80001a4e:	00078e23          	sb	zero,28(a5)
    80001a52:	00078ea3          	sb	zero,29(a5)
    80001a56:	00078f23          	sb	zero,30(a5)
    80001a5a:	00078fa3          	sb	zero,31(a5)
    80001a5e:	c19d                	beqz	a1,0x80001a84
    80001a60:	e18c                	sd	a1,0(a1)
    80001a62:	001107b7          	lui	a5,0x110
    80001a66:	e59c                	sd	a5,8(a1)
    80001a68:	0005b823          	sd	zero,16(a1)
    80001a6c:	0005bc23          	sd	zero,24(a1)
    80001a70:	0814                	addi	a3,sp,16
    80001a72:	0030                	addi	a2,sp,8
    80001a74:	003ff517          	auipc	a0,0x3ff
    80001a78:	83450513          	addi	a0,a0,-1996 # 0x804002a8
    80001a7c:	00000097          	auipc	ra,0x0
    80001a80:	ba4080e7          	jalr	-1116(ra) # 0x80001620
    80001a84:	003ff797          	auipc	a5,0x3ff
    80001a88:	82478793          	addi	a5,a5,-2012 # 0x804002a8
    80001a8c:	003fe717          	auipc	a4,0x3fe
    80001a90:	7cf73a23          	sd	a5,2004(a4) # 0x80400260
    80001a94:	00001097          	auipc	ra,0x1
    80001a98:	4bc080e7          	jalr	1212(ra) # 0x80002f50
    80001a9c:	00001097          	auipc	ra,0x1
    80001aa0:	5e0080e7          	jalr	1504(ra) # 0x8000307c
    80001aa4:	0200c7b7          	lui	a5,0x200c
    80001aa8:	ffc7a703          	lw	a4,-4(a5) # 0x200bffc
    80001aac:	ff87a783          	lw	a5,-8(a5)
    80001ab0:	003fe717          	auipc	a4,0x3fe
    80001ab4:	7af72c23          	sw	a5,1976(a4) # 0x80400268
    80001ab8:	60e6                	ld	ra,88(sp)
    80001aba:	6446                	ld	s0,80(sp)
    80001abc:	6125                	addi	sp,sp,96
    80001abe:	8082                	ret
    80001ac0:	1141                	addi	sp,sp,-16
    80001ac2:	e406                	sd	ra,8(sp)
    80001ac4:	003fe517          	auipc	a0,0x3fe
    80001ac8:	78450513          	addi	a0,a0,1924 # 0x80400248
    80001acc:	00000097          	auipc	ra,0x0
    80001ad0:	c6a080e7          	jalr	-918(ra) # 0x80001736
    80001ad4:	60a2                	ld	ra,8(sp)
    80001ad6:	0141                	addi	sp,sp,16
    80001ad8:	8082                	ret
    80001ada:	1141                	addi	sp,sp,-16
    80001adc:	e406                	sd	ra,8(sp)
    80001ade:	00002097          	auipc	ra,0x2
    80001ae2:	134080e7          	jalr	308(ra) # 0x80003c12
    80001ae6:	60a2                	ld	ra,8(sp)
    80001ae8:	0141                	addi	sp,sp,16
    80001aea:	8082                	ret
    80001aec:	1141                	addi	sp,sp,-16
    80001aee:	e406                	sd	ra,8(sp)
    80001af0:	00001097          	auipc	ra,0x1
    80001af4:	f2e080e7          	jalr	-210(ra) # 0x80002a1e
    80001af8:	a001                	j	0x80001af8
    80001afa:	1141                	addi	sp,sp,-16
    80001afc:	e406                	sd	ra,8(sp)
    80001afe:	852a                	mv	a0,a0
    80001b00:	2501                	sext.w	a0,a0
    80001b02:	00001097          	auipc	ra,0x1
    80001b06:	f1c080e7          	jalr	-228(ra) # 0x80002a1e
    80001b0a:	a001                	j	0x80001b0a
    80001b0c:	00054683          	lbu	a3,0(a0)
    80001b10:	cac9                	beqz	a3,0x80001ba2
    80001b12:	4825                	li	a6,9
    80001b14:	100107b7          	lui	a5,0x10010
    80001b18:	003fe617          	auipc	a2,0x3fe
    80001b1c:	77c60613          	addi	a2,a2,1916 # 0x80400294
    80001b20:	45a9                	li	a1,10
    80001b22:	4335                	li	t1,13
    80001b24:	003fe897          	auipc	a7,0x3fe
    80001b28:	76c88893          	addi	a7,a7,1900 # 0x80400290
    80001b2c:	04f00e13          	li	t3,79
    80001b30:	a821                	j	0x80001b48
    80001b32:	4398                	lw	a4,0(a5)
    80001b34:	fe074fe3          	bltz	a4,0x80001b32
    80001b38:	0107a023          	sw	a6,0(a5) # 0x10010000
    80001b3c:	4218                	lw	a4,0(a2)
    80001b3e:	2721                	addiw	a4,a4,8
    80001b40:	c218                	sw	a4,0(a2)
    80001b42:	00054683          	lbu	a3,0(a0)
    80001b46:	ceb1                	beqz	a3,0x80001ba2
    80001b48:	0505                	addi	a0,a0,1
    80001b4a:	ff0684e3          	beq	a3,a6,0x80001b32
    80001b4e:	02b69363          	bne	a3,a1,0x80001b74
    80001b52:	4398                	lw	a4,0(a5)
    80001b54:	fe074fe3          	bltz	a4,0x80001b52
    80001b58:	0067a023          	sw	t1,0(a5)
    80001b5c:	4398                	lw	a4,0(a5)
    80001b5e:	fe074fe3          	bltz	a4,0x80001b5c
    80001b62:	c38c                	sw	a1,0(a5)
    80001b64:	00062023          	sw	zero,0(a2)
    80001b68:	0008a703          	lw	a4,0(a7)
    80001b6c:	2705                	addiw	a4,a4,1
    80001b6e:	00e8a023          	sw	a4,0(a7)
    80001b72:	bfc1                	j	0x80001b42
    80001b74:	4218                	lw	a4,0(a2)
    80001b76:	2705                	addiw	a4,a4,1
    80001b78:	c218                	sw	a4,0(a2)
    80001b7a:	4398                	lw	a4,0(a5)
    80001b7c:	fe074fe3          	bltz	a4,0x80001b7a
    80001b80:	2681                	sext.w	a3,a3
    80001b82:	c394                	sw	a3,0(a5)
    80001b84:	4218                	lw	a4,0(a2)
    80001b86:	faee5ee3          	bge	t3,a4,0x80001b42
    80001b8a:	4398                	lw	a4,0(a5)
    80001b8c:	fe074fe3          	bltz	a4,0x80001b8a
    80001b90:	0067a023          	sw	t1,0(a5)
    80001b94:	4398                	lw	a4,0(a5)
    80001b96:	fe074fe3          	bltz	a4,0x80001b94
    80001b9a:	c38c                	sw	a1,0(a5)
    80001b9c:	00062023          	sw	zero,0(a2)
    80001ba0:	b74d                	j	0x80001b42
    80001ba2:	8082                	ret
    80001ba4:	8082                	ret
    80001ba6:	e111                	bnez	a0,0x80001baa
    80001ba8:	8082                	ret
    80001baa:	1141                	addi	sp,sp,-16
    80001bac:	e406                	sd	ra,8(sp)
    80001bae:	00002097          	auipc	ra,0x2
    80001bb2:	064080e7          	jalr	100(ra) # 0x80003c12
    80001bb6:	60a2                	ld	ra,8(sp)
    80001bb8:	0141                	addi	sp,sp,16
    80001bba:	8082                	ret
    80001bbc:	003fe797          	auipc	a5,0x3fe
    80001bc0:	69c78793          	addi	a5,a5,1692 # 0x80400258
    80001bc4:	4729                	li	a4,10
    80001bc6:	c398                	sw	a4,0(a5)
    80001bc8:	00078223          	sb	zero,4(a5)
    80001bcc:	003fe797          	auipc	a5,0x3fe
    80001bd0:	68478793          	addi	a5,a5,1668 # 0x80400250
    80001bd4:	c398                	sw	a4,0(a5)
    80001bd6:	00078223          	sb	zero,4(a5)
    80001bda:	8082                	ret
    80001bdc:	715d                	addi	sp,sp,-80
    80001bde:	e486                	sd	ra,72(sp)
    80001be0:	e0a2                	sd	s0,64(sp)
    80001be2:	003fe797          	auipc	a5,0x3fe
    80001be6:	62e7b783          	ld	a5,1582(a5) # 0x80400210
    80001bea:	cf89                	beqz	a5,0x80001c04
    80001bec:	003fe517          	auipc	a0,0x3fe
    80001bf0:	62453503          	ld	a0,1572(a0) # 0x80400210
    80001bf4:	00001097          	auipc	ra,0x1
    80001bf8:	312080e7          	jalr	786(ra) # 0x80002f06
    80001bfc:	60a6                	ld	ra,72(sp)
    80001bfe:	6406                	ld	s0,64(sp)
    80001c00:	6161                	addi	sp,sp,80
    80001c02:	8082                	ret
    80001c04:	003fe417          	auipc	s0,0x3fe
    80001c08:	64c40413          	addi	s0,s0,1612 # 0x80400250
    80001c0c:	00040223          	sb	zero,4(s0)
    80001c10:	00000097          	auipc	ra,0x0
    80001c14:	f94080e7          	jalr	-108(ra) # 0x80001ba4
    80001c18:	4785                	li	a5,1
    80001c1a:	00f40223          	sb	a5,4(s0)
    80001c1e:	00002517          	auipc	a0,0x2
    80001c22:	62a50513          	addi	a0,a0,1578 # 0x80004248
    80001c26:	00000097          	auipc	ra,0x0
    80001c2a:	ee6080e7          	jalr	-282(ra) # 0x80001b0c
    80001c2e:	00002517          	auipc	a0,0x2
    80001c32:	63250513          	addi	a0,a0,1586 # 0x80004260
    80001c36:	00000097          	auipc	ra,0x0
    80001c3a:	ed6080e7          	jalr	-298(ra) # 0x80001b0c
    80001c3e:	00002517          	auipc	a0,0x2
    80001c42:	62a50513          	addi	a0,a0,1578 # 0x80004268
    80001c46:	00000097          	auipc	ra,0x0
    80001c4a:	ec6080e7          	jalr	-314(ra) # 0x80001b0c
    80001c4e:	00002517          	auipc	a0,0x2
    80001c52:	62a50513          	addi	a0,a0,1578 # 0x80004278
    80001c56:	00000097          	auipc	ra,0x0
    80001c5a:	eb6080e7          	jalr	-330(ra) # 0x80001b0c
    80001c5e:	00002517          	auipc	a0,0x2
    80001c62:	65a50513          	addi	a0,a0,1626 # 0x800042b8
    80001c66:	00000097          	auipc	ra,0x0
    80001c6a:	ea6080e7          	jalr	-346(ra) # 0x80001b0c
    80001c6e:	00002517          	auipc	a0,0x2
    80001c72:	65250513          	addi	a0,a0,1618 # 0x800042c0
    80001c76:	00000097          	auipc	ra,0x0
    80001c7a:	e96080e7          	jalr	-362(ra) # 0x80001b0c
    80001c7e:	00002517          	auipc	a0,0x2
    80001c82:	68a50513          	addi	a0,a0,1674 # 0x80004308
    80001c86:	00000097          	auipc	ra,0x0
    80001c8a:	e86080e7          	jalr	-378(ra) # 0x80001b0c
    80001c8e:	4681                	li	a3,0
    80001c90:	860a                	mv	a2,sp
    80001c92:	02800593          	li	a1,40
    80001c96:	8522                	mv	a0,s0
    80001c98:	00000097          	auipc	ra,0x0
    80001c9c:	118080e7          	jalr	280(ra) # 0x80001db0
    80001ca0:	04050793          	addi	a5,a0,64
    80001ca4:	00278533          	add	a0,a5,sp
    80001ca8:	fc050023          	sb	zero,-64(a0)
    80001cac:	850a                	mv	a0,sp
    80001cae:	00000097          	auipc	ra,0x0
    80001cb2:	e5e080e7          	jalr	-418(ra) # 0x80001b0c
    80001cb6:	00444503          	lbu	a0,4(s0)
    80001cba:	00000097          	auipc	ra,0x0
    80001cbe:	eec080e7          	jalr	-276(ra) # 0x80001ba6
    80001cc2:	00002517          	auipc	a0,0x2
    80001cc6:	28e50513          	addi	a0,a0,654 # 0x80003f50
    80001cca:	00000097          	auipc	ra,0x0
    80001cce:	e42080e7          	jalr	-446(ra) # 0x80001b0c
    80001cd2:	47a9                	li	a5,10
    80001cd4:	c01c                	sw	a5,0(s0)
    80001cd6:	bf19                	j	0x80001bec
    80001cd8:	711d                	addi	sp,sp,-96
    80001cda:	ec86                	sd	ra,88(sp)
    80001cdc:	e8a2                	sd	s0,80(sp)
    80001cde:	e4a6                	sd	s1,72(sp)
    80001ce0:	e0ca                	sd	s2,64(sp)
    80001ce2:	892a                	mv	s2,a0
    80001ce4:	84ae                	mv	s1,a1
    80001ce6:	003fe417          	auipc	s0,0x3fe
    80001cea:	56a40413          	addi	s0,s0,1386 # 0x80400250
    80001cee:	00040223          	sb	zero,4(s0)
    80001cf2:	00000097          	auipc	ra,0x0
    80001cf6:	eb2080e7          	jalr	-334(ra) # 0x80001ba4
    80001cfa:	4785                	li	a5,1
    80001cfc:	00f40223          	sb	a5,4(s0)
    80001d00:	00002517          	auipc	a0,0x2
    80001d04:	61050513          	addi	a0,a0,1552 # 0x80004310
    80001d08:	00000097          	auipc	ra,0x0
    80001d0c:	e04080e7          	jalr	-508(ra) # 0x80001b0c
    80001d10:	860a                	mv	a2,sp
    80001d12:	85ca                	mv	a1,s2
    80001d14:	8522                	mv	a0,s0
    80001d16:	00000097          	auipc	ra,0x0
    80001d1a:	180080e7          	jalr	384(ra) # 0x80001e96
    80001d1e:	04050793          	addi	a5,a0,64
    80001d22:	00278533          	add	a0,a5,sp
    80001d26:	fc050023          	sb	zero,-64(a0)
    80001d2a:	850a                	mv	a0,sp
    80001d2c:	00000097          	auipc	ra,0x0
    80001d30:	de0080e7          	jalr	-544(ra) # 0x80001b0c
    80001d34:	00002517          	auipc	a0,0x2
    80001d38:	5f450513          	addi	a0,a0,1524 # 0x80004328
    80001d3c:	00000097          	auipc	ra,0x0
    80001d40:	dd0080e7          	jalr	-560(ra) # 0x80001b0c
    80001d44:	4681                	li	a3,0
    80001d46:	860a                	mv	a2,sp
    80001d48:	0004859b          	sext.w	a1,s1
    80001d4c:	8522                	mv	a0,s0
    80001d4e:	00000097          	auipc	ra,0x0
    80001d52:	062080e7          	jalr	98(ra) # 0x80001db0
    80001d56:	04050793          	addi	a5,a0,64
    80001d5a:	00278533          	add	a0,a5,sp
    80001d5e:	fc050023          	sb	zero,-64(a0)
    80001d62:	850a                	mv	a0,sp
    80001d64:	00000097          	auipc	ra,0x0
    80001d68:	da8080e7          	jalr	-600(ra) # 0x80001b0c
    80001d6c:	00002517          	auipc	a0,0x2
    80001d70:	5e450513          	addi	a0,a0,1508 # 0x80004350
    80001d74:	00000097          	auipc	ra,0x0
    80001d78:	d98080e7          	jalr	-616(ra) # 0x80001b0c
    80001d7c:	00444503          	lbu	a0,4(s0)
    80001d80:	00000097          	auipc	ra,0x0
    80001d84:	e26080e7          	jalr	-474(ra) # 0x80001ba6
    80001d88:	00002517          	auipc	a0,0x2
    80001d8c:	1c850513          	addi	a0,a0,456 # 0x80003f50
    80001d90:	00000097          	auipc	ra,0x0
    80001d94:	d7c080e7          	jalr	-644(ra) # 0x80001b0c
    80001d98:	47a9                	li	a5,10
    80001d9a:	c01c                	sw	a5,0(s0)
    80001d9c:	00000097          	auipc	ra,0x0
    80001da0:	d3e080e7          	jalr	-706(ra) # 0x80001ada
    80001da4:	60e6                	ld	ra,88(sp)
    80001da6:	6446                	ld	s0,80(sp)
    80001da8:	64a6                	ld	s1,72(sp)
    80001daa:	6906                	ld	s2,64(sp)
    80001dac:	6125                	addi	sp,sp,96
    80001dae:	8082                	ret
    80001db0:	cdb9                	beqz	a1,0x80001e0e
    80001db2:	411c                	lw	a5,0(a0)
    80001db4:	eba5                	bnez	a5,0x80001e24
    80001db6:	47a9                	li	a5,10
    80001db8:	c11c                	sw	a5,0(a0)
    80001dba:	00052803          	lw	a6,0(a0)
    80001dbe:	87ae                	mv	a5,a1
    80001dc0:	0006871b          	sext.w	a4,a3
    80001dc4:	2685                	addiw	a3,a3,1
    80001dc6:	0007889b          	sext.w	a7,a5
    80001dca:	0307d7bb          	divuw	a5,a5,a6
    80001dce:	ff08f9e3          	bgeu	a7,a6,0x80001dc0
    80001dd2:	00002897          	auipc	a7,0x2
    80001dd6:	58688893          	addi	a7,a7,1414 # 0x80004358
    80001dda:	02071813          	slli	a6,a4,0x20
    80001dde:	02085813          	srli	a6,a6,0x20
    80001de2:	9832                	add	a6,a6,a2
    80001de4:	411c                	lw	a5,0(a0)
    80001de6:	02f5f7bb          	remuw	a5,a1,a5
    80001dea:	1782                	slli	a5,a5,0x20
    80001dec:	9381                	srli	a5,a5,0x20
    80001dee:	97c6                	add	a5,a5,a7
    80001df0:	0007c783          	lbu	a5,0(a5)
    80001df4:	00f80023          	sb	a5,0(a6)
    80001df8:	411c                	lw	a5,0(a0)
    80001dfa:	0005881b          	sext.w	a6,a1
    80001dfe:	02f5d5bb          	divuw	a1,a1,a5
    80001e02:	377d                	addiw	a4,a4,-1
    80001e04:	fcf87be3          	bgeu	a6,a5,0x80001dda
    80001e08:	0006851b          	sext.w	a0,a3
    80001e0c:	8082                	ret
    80001e0e:	02069793          	slli	a5,a3,0x20
    80001e12:	9381                	srli	a5,a5,0x20
    80001e14:	97b2                	add	a5,a5,a2
    80001e16:	03000713          	li	a4,48
    80001e1a:	00e78023          	sb	a4,0(a5)
    80001e1e:	0016851b          	addiw	a0,a3,1
    80001e22:	8082                	ret
    80001e24:	10000793          	li	a5,256
    80001e28:	f8b7f9e3          	bgeu	a5,a1,0x80001dba
    80001e2c:	411c                	lw	a5,0(a0)
    80001e2e:	37e1                	addiw	a5,a5,-8
    80001e30:	9bdd                	andi	a5,a5,-9
    80001e32:	2781                	sext.w	a5,a5
    80001e34:	f3d9                	bnez	a5,0x80001dba
    80001e36:	0016879b          	addiw	a5,a3,1
    80001e3a:	0007889b          	sext.w	a7,a5
    80001e3e:	02069713          	slli	a4,a3,0x20
    80001e42:	9301                	srli	a4,a4,0x20
    80001e44:	9732                	add	a4,a4,a2
    80001e46:	03000813          	li	a6,48
    80001e4a:	01070023          	sb	a6,0(a4)
    80001e4e:	00052803          	lw	a6,0(a0)
    80001e52:	4741                	li	a4,16
    80001e54:	00e81b63          	bne	a6,a4,0x80001e6a
    80001e58:	2689                	addiw	a3,a3,2
    80001e5a:	1782                	slli	a5,a5,0x20
    80001e5c:	9381                	srli	a5,a5,0x20
    80001e5e:	97b2                	add	a5,a5,a2
    80001e60:	07800713          	li	a4,120
    80001e64:	00e78023          	sb	a4,0(a5)
    80001e68:	bf89                	j	0x80001dba
    80001e6a:	86c6                	mv	a3,a7
    80001e6c:	b7b9                	j	0x80001dba
    80001e6e:	1141                	addi	sp,sp,-16
    80001e70:	e406                	sd	ra,8(sp)
    80001e72:	4681                	li	a3,0
    80001e74:	0005c963          	bltz	a1,0x80001e86
    80001e78:	00000097          	auipc	ra,0x0
    80001e7c:	f38080e7          	jalr	-200(ra) # 0x80001db0
    80001e80:	60a2                	ld	ra,8(sp)
    80001e82:	0141                	addi	sp,sp,16
    80001e84:	8082                	ret
    80001e86:	40b005bb          	negw	a1,a1
    80001e8a:	02d00793          	li	a5,45
    80001e8e:	00f60023          	sb	a5,0(a2)
    80001e92:	4685                	li	a3,1
    80001e94:	b7d5                	j	0x80001e78
    80001e96:	03000793          	li	a5,48
    80001e9a:	00f60023          	sb	a5,0(a2)
    80001e9e:	07800793          	li	a5,120
    80001ea2:	00f600a3          	sb	a5,1(a2)
    80001ea6:	01160793          	addi	a5,a2,17
    80001eaa:	00160693          	addi	a3,a2,1
    80001eae:	00002617          	auipc	a2,0x2
    80001eb2:	4aa60613          	addi	a2,a2,1194 # 0x80004358
    80001eb6:	00f5f713          	andi	a4,a1,15
    80001eba:	9732                	add	a4,a4,a2
    80001ebc:	00074703          	lbu	a4,0(a4)
    80001ec0:	00e78023          	sb	a4,0(a5)
    80001ec4:	8191                	srli	a1,a1,0x4
    80001ec6:	17fd                	addi	a5,a5,-1
    80001ec8:	fed797e3          	bne	a5,a3,0x80001eb6
    80001ecc:	4549                	li	a0,18
    80001ece:	8082                	ret
    80001ed0:	7135                	addi	sp,sp,-160
    80001ed2:	ed06                	sd	ra,152(sp)
    80001ed4:	e922                	sd	s0,144(sp)
    80001ed6:	e526                	sd	s1,136(sp)
    80001ed8:	e14a                	sd	s2,128(sp)
    80001eda:	fcce                	sd	s3,120(sp)
    80001edc:	f8d2                	sd	s4,112(sp)
    80001ede:	f4d6                	sd	s5,104(sp)
    80001ee0:	f0da                	sd	s6,96(sp)
    80001ee2:	ecde                	sd	s7,88(sp)
    80001ee4:	e8e2                	sd	s8,80(sp)
    80001ee6:	e4e6                	sd	s9,72(sp)
    80001ee8:	892a                	mv	s2,a0
    80001eea:	842e                	mv	s0,a1
    80001eec:	84b2                	mv	s1,a2
    80001eee:	8a36                	mv	s4,a3
    80001ef0:	8aba                	mv	s5,a4
    80001ef2:	003fe997          	auipc	s3,0x3fe
    80001ef6:	35e98993          	addi	s3,s3,862 # 0x80400250
    80001efa:	00098223          	sb	zero,4(s3)
    80001efe:	00000097          	auipc	ra,0x0
    80001f02:	ca6080e7          	jalr	-858(ra) # 0x80001ba4
    80001f06:	00002517          	auipc	a0,0x2
    80001f0a:	46a50513          	addi	a0,a0,1130 # 0x80004370
    80001f0e:	00000097          	auipc	ra,0x0
    80001f12:	bfe080e7          	jalr	-1026(ra) # 0x80001b0c
    80001f16:	860a                	mv	a2,sp
    80001f18:	600c                	ld	a1,0(s0)
    80001f1a:	854e                	mv	a0,s3
    80001f1c:	00000097          	auipc	ra,0x0
    80001f20:	f7a080e7          	jalr	-134(ra) # 0x80001e96
    80001f24:	04050793          	addi	a5,a0,64
    80001f28:	00278533          	add	a0,a5,sp
    80001f2c:	fc050023          	sb	zero,-64(a0)
    80001f30:	850a                	mv	a0,sp
    80001f32:	00000097          	auipc	ra,0x0
    80001f36:	bda080e7          	jalr	-1062(ra) # 0x80001b0c
    80001f3a:	00002517          	auipc	a0,0x2
    80001f3e:	45650513          	addi	a0,a0,1110 # 0x80004390
    80001f42:	00000097          	auipc	ra,0x0
    80001f46:	bca080e7          	jalr	-1078(ra) # 0x80001b0c
    80001f4a:	4681                	li	a3,0
    80001f4c:	860a                	mv	a2,sp
    80001f4e:	0004859b          	sext.w	a1,s1
    80001f52:	854e                	mv	a0,s3
    80001f54:	00000097          	auipc	ra,0x0
    80001f58:	e5c080e7          	jalr	-420(ra) # 0x80001db0
    80001f5c:	04050793          	addi	a5,a0,64
    80001f60:	00278533          	add	a0,a5,sp
    80001f64:	fc050023          	sb	zero,-64(a0)
    80001f68:	850a                	mv	a0,sp
    80001f6a:	00000097          	auipc	ra,0x0
    80001f6e:	ba2080e7          	jalr	-1118(ra) # 0x80001b0c
    80001f72:	00002517          	auipc	a0,0x2
    80001f76:	42650513          	addi	a0,a0,1062 # 0x80004398
    80001f7a:	00000097          	auipc	ra,0x0
    80001f7e:	b92080e7          	jalr	-1134(ra) # 0x80001b0c
    80001f82:	4681                	li	a3,0
    80001f84:	860a                	mv	a2,sp
    80001f86:	000a059b          	sext.w	a1,s4
    80001f8a:	854e                	mv	a0,s3
    80001f8c:	00000097          	auipc	ra,0x0
    80001f90:	e24080e7          	jalr	-476(ra) # 0x80001db0
    80001f94:	04050793          	addi	a5,a0,64
    80001f98:	00278533          	add	a0,a5,sp
    80001f9c:	fc050023          	sb	zero,-64(a0)
    80001fa0:	850a                	mv	a0,sp
    80001fa2:	00000097          	auipc	ra,0x0
    80001fa6:	b6a080e7          	jalr	-1174(ra) # 0x80001b0c
    80001faa:	00002517          	auipc	a0,0x2
    80001fae:	3f650513          	addi	a0,a0,1014 # 0x800043a0
    80001fb2:	00000097          	auipc	ra,0x0
    80001fb6:	b5a080e7          	jalr	-1190(ra) # 0x80001b0c
    80001fba:	4681                	li	a3,0
    80001fbc:	860a                	mv	a2,sp
    80001fbe:	000aa583          	lw	a1,0(s5)
    80001fc2:	854e                	mv	a0,s3
    80001fc4:	00000097          	auipc	ra,0x0
    80001fc8:	dec080e7          	jalr	-532(ra) # 0x80001db0
    80001fcc:	04050793          	addi	a5,a0,64
    80001fd0:	00278533          	add	a0,a5,sp
    80001fd4:	fc050023          	sb	zero,-64(a0)
    80001fd8:	850a                	mv	a0,sp
    80001fda:	00000097          	auipc	ra,0x0
    80001fde:	b32080e7          	jalr	-1230(ra) # 0x80001b0c
    80001fe2:	00002517          	auipc	a0,0x2
    80001fe6:	47650513          	addi	a0,a0,1142 # 0x80004458
    80001fea:	00000097          	auipc	ra,0x0
    80001fee:	b22080e7          	jalr	-1246(ra) # 0x80001b0c
    80001ff2:	0049c503          	lbu	a0,4(s3)
    80001ff6:	00000097          	auipc	ra,0x0
    80001ffa:	bb0080e7          	jalr	-1104(ra) # 0x80001ba6
    80001ffe:	00002517          	auipc	a0,0x2
    80002002:	f5250513          	addi	a0,a0,-174 # 0x80003f50
    80002006:	00000097          	auipc	ra,0x0
    8000200a:	b06080e7          	jalr	-1274(ra) # 0x80001b0c
    8000200e:	4b29                	li	s6,10
    80002010:	0169a023          	sw	s6,0(s3)
    80002014:	601c                	ld	a5,0(s0)
    80002016:	6705                	lui	a4,0x1
    80002018:	177d                	addi	a4,a4,-1 # 0xfff
    8000201a:	97ba                	add	a5,a5,a4
    8000201c:	777d                	lui	a4,0xfffff
    8000201e:	8ff9                	and	a5,a5,a4
    80002020:	e01c                	sd	a5,0(s0)
    80002022:	00098223          	sb	zero,4(s3)
    80002026:	00000097          	auipc	ra,0x0
    8000202a:	b7e080e7          	jalr	-1154(ra) # 0x80001ba4
    8000202e:	00002517          	auipc	a0,0x2
    80002032:	37a50513          	addi	a0,a0,890 # 0x800043a8
    80002036:	00000097          	auipc	ra,0x0
    8000203a:	ad6080e7          	jalr	-1322(ra) # 0x80001b0c
    8000203e:	860a                	mv	a2,sp
    80002040:	600c                	ld	a1,0(s0)
    80002042:	854e                	mv	a0,s3
    80002044:	00000097          	auipc	ra,0x0
    80002048:	e52080e7          	jalr	-430(ra) # 0x80001e96
    8000204c:	04050793          	addi	a5,a0,64
    80002050:	978a                	add	a5,a5,sp
    80002052:	fc078023          	sb	zero,-64(a5)
    80002056:	850a                	mv	a0,sp
    80002058:	00000097          	auipc	ra,0x0
    8000205c:	ab4080e7          	jalr	-1356(ra) # 0x80001b0c
    80002060:	0049c503          	lbu	a0,4(s3)
    80002064:	00000097          	auipc	ra,0x0
    80002068:	b42080e7          	jalr	-1214(ra) # 0x80001ba6
    8000206c:	00002517          	auipc	a0,0x2
    80002070:	ee450513          	addi	a0,a0,-284 # 0x80003f50
    80002074:	00000097          	auipc	ra,0x0
    80002078:	a98080e7          	jalr	-1384(ra) # 0x80001b0c
    8000207c:	0169a023          	sw	s6,0(s3)
    80002080:	0744f563          	bgeu	s1,s4,0x800020ea
    80002084:	00349793          	slli	a5,s1,0x3
    80002088:	993e                	add	s2,s2,a5
    8000208a:	00002c97          	auipc	s9,0x2
    8000208e:	346c8c93          	addi	s9,s9,838 # 0x800043d0
    80002092:	00002c17          	auipc	s8,0x2
    80002096:	ebec0c13          	addi	s8,s8,-322 # 0x80003f50
    8000209a:	4ba9                	li	s7,10
    8000209c:	6b05                	lui	s6,0x1
    8000209e:	00098223          	sb	zero,4(s3)
    800020a2:	00000097          	auipc	ra,0x0
    800020a6:	b02080e7          	jalr	-1278(ra) # 0x80001ba4
    800020aa:	8566                	mv	a0,s9
    800020ac:	00000097          	auipc	ra,0x0
    800020b0:	a60080e7          	jalr	-1440(ra) # 0x80001b0c
    800020b4:	0049c503          	lbu	a0,4(s3)
    800020b8:	00000097          	auipc	ra,0x0
    800020bc:	aee080e7          	jalr	-1298(ra) # 0x80001ba6
    800020c0:	8562                	mv	a0,s8
    800020c2:	00000097          	auipc	ra,0x0
    800020c6:	a4a080e7          	jalr	-1462(ra) # 0x80001b0c
    800020ca:	0179a023          	sw	s7,0(s3)
    800020ce:	601c                	ld	a5,0(s0)
    800020d0:	8389                	srli	a5,a5,0x2
    800020d2:	000ae703          	lwu	a4,0(s5)
    800020d6:	8fd9                	or	a5,a5,a4
    800020d8:	00f93023          	sd	a5,0(s2)
    800020dc:	601c                	ld	a5,0(s0)
    800020de:	97da                	add	a5,a5,s6
    800020e0:	e01c                	sd	a5,0(s0)
    800020e2:	0485                	addi	s1,s1,1
    800020e4:	0921                	addi	s2,s2,8
    800020e6:	fa9a1ce3          	bne	s4,s1,0x8000209e
    800020ea:	60ea                	ld	ra,152(sp)
    800020ec:	644a                	ld	s0,144(sp)
    800020ee:	64aa                	ld	s1,136(sp)
    800020f0:	690a                	ld	s2,128(sp)
    800020f2:	79e6                	ld	s3,120(sp)
    800020f4:	7a46                	ld	s4,112(sp)
    800020f6:	7aa6                	ld	s5,104(sp)
    800020f8:	7b06                	ld	s6,96(sp)
    800020fa:	6be6                	ld	s7,88(sp)
    800020fc:	6c46                	ld	s8,80(sp)
    800020fe:	6ca6                	ld	s9,72(sp)
    80002100:	610d                	addi	sp,sp,160
    80002102:	8082                	ret
    80002104:	711d                	addi	sp,sp,-96
    80002106:	ec86                	sd	ra,88(sp)
    80002108:	e8a2                	sd	s0,80(sp)
    8000210a:	e4a6                	sd	s1,72(sp)
    8000210c:	e0ca                	sd	s2,64(sp)
    8000210e:	842a                	mv	s0,a0
    80002110:	00053023          	sd	zero,0(a0)
    80002114:	e981                	bnez	a1,0x80002124
    80002116:	8522                	mv	a0,s0
    80002118:	60e6                	ld	ra,88(sp)
    8000211a:	6446                	ld	s0,80(sp)
    8000211c:	64a6                	ld	s1,72(sp)
    8000211e:	6906                	ld	s2,64(sp)
    80002120:	6125                	addi	sp,sp,96
    80002122:	8082                	ret
    80002124:	84ae                	mv	s1,a1
    80002126:	02059693          	slli	a3,a1,0x20
    8000212a:	9281                	srli	a3,a3,0x20
    8000212c:	003fe797          	auipc	a5,0x3fe
    80002130:	2ec7b783          	ld	a5,748(a5) # 0x80400418
    80002134:	c791                	beqz	a5,0x80002140
    80002136:	6798                	ld	a4,8(a5)
    80002138:	0ed77c63          	bgeu	a4,a3,0x80002230
    8000213c:	6f9c                	ld	a5,24(a5)
    8000213e:	ffe5                	bnez	a5,0x80002136
    80002140:	003fe917          	auipc	s2,0x3fe
    80002144:	11090913          	addi	s2,s2,272 # 0x80400250
    80002148:	00090223          	sb	zero,4(s2)
    8000214c:	00000097          	auipc	ra,0x0
    80002150:	a58080e7          	jalr	-1448(ra) # 0x80001ba4
    80002154:	00002517          	auipc	a0,0x2
    80002158:	0d450513          	addi	a0,a0,212 # 0x80004228
    8000215c:	00000097          	auipc	ra,0x0
    80002160:	9b0080e7          	jalr	-1616(ra) # 0x80001b0c
    80002164:	4681                	li	a3,0
    80002166:	860a                	mv	a2,sp
    80002168:	85a6                	mv	a1,s1
    8000216a:	854a                	mv	a0,s2
    8000216c:	00000097          	auipc	ra,0x0
    80002170:	c44080e7          	jalr	-956(ra) # 0x80001db0
    80002174:	04050793          	addi	a5,a0,64
    80002178:	00278533          	add	a0,a5,sp
    8000217c:	fc050023          	sb	zero,-64(a0)
    80002180:	850a                	mv	a0,sp
    80002182:	00000097          	auipc	ra,0x0
    80002186:	98a080e7          	jalr	-1654(ra) # 0x80001b0c
    8000218a:	00002517          	auipc	a0,0x2
    8000218e:	0b650513          	addi	a0,a0,182 # 0x80004240
    80002192:	00000097          	auipc	ra,0x0
    80002196:	97a080e7          	jalr	-1670(ra) # 0x80001b0c
    8000219a:	00494503          	lbu	a0,4(s2)
    8000219e:	00000097          	auipc	ra,0x0
    800021a2:	a08080e7          	jalr	-1528(ra) # 0x80001ba6
    800021a6:	00002517          	auipc	a0,0x2
    800021aa:	daa50513          	addi	a0,a0,-598 # 0x80003f50
    800021ae:	00000097          	auipc	ra,0x0
    800021b2:	95e080e7          	jalr	-1698(ra) # 0x80001b0c
    800021b6:	47a9                	li	a5,10
    800021b8:	00f92023          	sw	a5,0(s2)
    800021bc:	bfa9                	j	0x80002116
    800021be:	003fe717          	auipc	a4,0x3fe
    800021c2:	25273703          	ld	a4,594(a4) # 0x80400410
    800021c6:	4685                	li	a3,1
    800021c8:	00d70f63          	beq	a4,a3,0x800021e6
    800021cc:	6b90                	ld	a2,16(a5)
    800021ce:	c61d                	beqz	a2,0x800021fc
    800021d0:	6f94                	ld	a3,24(a5)
    800021d2:	c2b1                	beqz	a3,0x80002216
    800021d4:	ee14                	sd	a3,24(a2)
    800021d6:	6b90                	ld	a2,16(a5)
    800021d8:	ea90                	sd	a2,16(a3)
    800021da:	177d                	addi	a4,a4,-1
    800021dc:	003fe697          	auipc	a3,0x3fe
    800021e0:	22e6ba23          	sd	a4,564(a3) # 0x80400410
    800021e4:	a08d                	j	0x80002246
    800021e6:	003fe717          	auipc	a4,0x3fe
    800021ea:	22a70713          	addi	a4,a4,554 # 0x80400410
    800021ee:	00073423          	sd	zero,8(a4)
    800021f2:	00073823          	sd	zero,16(a4)
    800021f6:	00073023          	sd	zero,0(a4)
    800021fa:	a0b1                	j	0x80002246
    800021fc:	c729                	beqz	a4,0x80002246
    800021fe:	003fe697          	auipc	a3,0x3fe
    80002202:	21268693          	addi	a3,a3,530 # 0x80400410
    80002206:	6690                	ld	a2,8(a3)
    80002208:	6e10                	ld	a2,24(a2)
    8000220a:	e690                	sd	a2,8(a3)
    8000220c:	00063823          	sd	zero,16(a2)
    80002210:	177d                	addi	a4,a4,-1
    80002212:	e298                	sd	a4,0(a3)
    80002214:	a80d                	j	0x80002246
    80002216:	cb05                	beqz	a4,0x80002246
    80002218:	003fe697          	auipc	a3,0x3fe
    8000221c:	1f868693          	addi	a3,a3,504 # 0x80400410
    80002220:	6a90                	ld	a2,16(a3)
    80002222:	6a10                	ld	a2,16(a2)
    80002224:	ea90                	sd	a2,16(a3)
    80002226:	00063c23          	sd	zero,24(a2)
    8000222a:	177d                	addi	a4,a4,-1
    8000222c:	e298                	sd	a4,0(a3)
    8000222e:	a821                	j	0x80002246
    80002230:	8f15                	sub	a4,a4,a3
    80002232:	e798                	sd	a4,8(a5)
    80002234:	003fe617          	auipc	a2,0x3fe
    80002238:	1dc60613          	addi	a2,a2,476 # 0x80400410
    8000223c:	6e18                	ld	a4,24(a2)
    8000223e:	8f15                	sub	a4,a4,a3
    80002240:	ee18                	sd	a4,24(a2)
    80002242:	6798                	ld	a4,8(a5)
    80002244:	df2d                	beqz	a4,0x800021be
    80002246:	6798                	ld	a4,8(a5)
    80002248:	0732                	slli	a4,a4,0xc
    8000224a:	639c                	ld	a5,0(a5)
    8000224c:	97ba                	add	a5,a5,a4
    8000224e:	e01c                	sd	a5,0(s0)
    80002250:	b5d9                	j	0x80002116
    80002252:	7135                	addi	sp,sp,-160
    80002254:	ed06                	sd	ra,152(sp)
    80002256:	e922                	sd	s0,144(sp)
    80002258:	e526                	sd	s1,136(sp)
    8000225a:	e14a                	sd	s2,128(sp)
    8000225c:	fcce                	sd	s3,120(sp)
    8000225e:	f8d2                	sd	s4,112(sp)
    80002260:	f4d6                	sd	s5,104(sp)
    80002262:	84aa                	mv	s1,a0
    80002264:	00062983          	lw	s3,0(a2)
    80002268:	00052223          	sw	zero,4(a0)
    8000226c:	1582                	slli	a1,a1,0x20
    8000226e:	9181                	srli	a1,a1,0x20
    80002270:	6785                	lui	a5,0x1
    80002272:	17fd                	addi	a5,a5,-1 # 0xfff
    80002274:	95be                	add	a1,a1,a5
    80002276:	85b1                	srai	a1,a1,0xc
    80002278:	c50c                	sw	a1,8(a0)
    8000227a:	002007b7          	lui	a5,0x200
    8000227e:	37fd                	addiw	a5,a5,-1 # 0x1fffff
    80002280:	9dbd                	addw	a1,a1,a5
    80002282:	0005871b          	sext.w	a4,a1
    80002286:	0155d91b          	srliw	s2,a1,0x15
    8000228a:	0155d41b          	srliw	s0,a1,0x15
    8000228e:	01252c23          	sw	s2,24(a0)
    80002292:	002007b7          	lui	a5,0x200
    80002296:	4a01                	li	s4,0
    80002298:	0af77063          	bgeu	a4,a5,0x80002338
    8000229c:	8ad2                	mv	s5,s4
    8000229e:	02091613          	slli	a2,s2,0x20
    800022a2:	9201                	srli	a2,a2,0x20
    800022a4:	0656                	slli	a2,a2,0x15
    800022a6:	4581                	li	a1,0
    800022a8:	8552                	mv	a0,s4
    800022aa:	00002097          	auipc	ra,0x2
    800022ae:	b86080e7          	jalr	-1146(ra) # 0x80003e30
    800022b2:	0144b823          	sd	s4,16(s1)
    800022b6:	0009879b          	sext.w	a5,s3
    800022ba:	0049f993          	andi	s3,s3,4
    800022be:	4919                	li	s2,6
    800022c0:	00099363          	bnez	s3,0x800022c6
    800022c4:	4909                	li	s2,2
    800022c6:	8be5                	andi	a5,a5,25
    800022c8:	00f96933          	or	s2,s2,a5
    800022cc:	0c096913          	ori	s2,s2,192
    800022d0:	0124ae23          	sw	s2,28(s1)
    800022d4:	40dc                	lw	a5,4(s1)
    800022d6:	02079413          	slli	s0,a5,0x20
    800022da:	9001                	srli	s0,s0,0x20
    800022dc:	448c                	lw	a1,8(s1)
    800022de:	02059993          	slli	s3,a1,0x20
    800022e2:	0209d993          	srli	s3,s3,0x20
    800022e6:	9d9d                	subw	a1,a1,a5
    800022e8:	08a8                	addi	a0,sp,88
    800022ea:	00000097          	auipc	ra,0x0
    800022ee:	e1a080e7          	jalr	-486(ra) # 0x80002104
    800022f2:	67e6                	ld	a5,88(sp)
    800022f4:	14079863          	bnez	a5,0x80002444
    800022f8:	00341493          	slli	s1,s0,0x3
    800022fc:	94d6                	add	s1,s1,s5
    800022fe:	1902                	slli	s2,s2,0x20
    80002300:	02095913          	srli	s2,s2,0x20
    80002304:	03347163          	bgeu	s0,s3,0x80002326
    80002308:	4585                	li	a1,1
    8000230a:	0088                	addi	a0,sp,64
    8000230c:	00000097          	auipc	ra,0x0
    80002310:	df8080e7          	jalr	-520(ra) # 0x80002104
    80002314:	6786                	ld	a5,64(sp)
    80002316:	8389                	srli	a5,a5,0x2
    80002318:	0127e7b3          	or	a5,a5,s2
    8000231c:	e09c                	sd	a5,0(s1)
    8000231e:	0405                	addi	s0,s0,1
    80002320:	04a1                	addi	s1,s1,8
    80002322:	ff3463e3          	bltu	s0,s3,0x80002308
    80002326:	60ea                	ld	ra,152(sp)
    80002328:	644a                	ld	s0,144(sp)
    8000232a:	64aa                	ld	s1,136(sp)
    8000232c:	690a                	ld	s2,128(sp)
    8000232e:	79e6                	ld	s3,120(sp)
    80002330:	7a46                	ld	s4,112(sp)
    80002332:	7aa6                	ld	s5,104(sp)
    80002334:	610d                	addi	sp,sp,160
    80002336:	8082                	ret
    80002338:	02091693          	slli	a3,s2,0x20
    8000233c:	9281                	srli	a3,a3,0x20
    8000233e:	003fe797          	auipc	a5,0x3fe
    80002342:	0fa7b783          	ld	a5,250(a5) # 0x80400438
    80002346:	c791                	beqz	a5,0x80002352
    80002348:	6798                	ld	a4,8(a5)
    8000234a:	10d77963          	bgeu	a4,a3,0x8000245c
    8000234e:	6f9c                	ld	a5,24(a5)
    80002350:	ffe5                	bnez	a5,0x80002348
    80002352:	003fea17          	auipc	s4,0x3fe
    80002356:	efea0a13          	addi	s4,s4,-258 # 0x80400250
    8000235a:	000a0223          	sb	zero,4(s4)
    8000235e:	00000097          	auipc	ra,0x0
    80002362:	846080e7          	jalr	-1978(ra) # 0x80001ba4
    80002366:	00002517          	auipc	a0,0x2
    8000236a:	09a50513          	addi	a0,a0,154 # 0x80004400
    8000236e:	fffff097          	auipc	ra,0xfffff
    80002372:	79e080e7          	jalr	1950(ra) # 0x80001b0c
    80002376:	4681                	li	a3,0
    80002378:	860a                	mv	a2,sp
    8000237a:	85a2                	mv	a1,s0
    8000237c:	8552                	mv	a0,s4
    8000237e:	00000097          	auipc	ra,0x0
    80002382:	a32080e7          	jalr	-1486(ra) # 0x80001db0
    80002386:	06050793          	addi	a5,a0,96
    8000238a:	00278533          	add	a0,a5,sp
    8000238e:	fa050023          	sb	zero,-96(a0)
    80002392:	850a                	mv	a0,sp
    80002394:	fffff097          	auipc	ra,0xfffff
    80002398:	778080e7          	jalr	1912(ra) # 0x80001b0c
    8000239c:	00002517          	auipc	a0,0x2
    800023a0:	ea450513          	addi	a0,a0,-348 # 0x80004240
    800023a4:	fffff097          	auipc	ra,0xfffff
    800023a8:	768080e7          	jalr	1896(ra) # 0x80001b0c
    800023ac:	004a4503          	lbu	a0,4(s4)
    800023b0:	fffff097          	auipc	ra,0xfffff
    800023b4:	7f6080e7          	jalr	2038(ra) # 0x80001ba6
    800023b8:	00002517          	auipc	a0,0x2
    800023bc:	b9850513          	addi	a0,a0,-1128 # 0x80003f50
    800023c0:	fffff097          	auipc	ra,0xfffff
    800023c4:	74c080e7          	jalr	1868(ra) # 0x80001b0c
    800023c8:	47a9                	li	a5,10
    800023ca:	00fa2023          	sw	a5,0(s4)
    800023ce:	4a01                	li	s4,0
    800023d0:	b5f1                	j	0x8000229c
    800023d2:	003fe717          	auipc	a4,0x3fe
    800023d6:	05e73703          	ld	a4,94(a4) # 0x80400430
    800023da:	4685                	li	a3,1
    800023dc:	00d70f63          	beq	a4,a3,0x800023fa
    800023e0:	6b90                	ld	a2,16(a5)
    800023e2:	c61d                	beqz	a2,0x80002410
    800023e4:	6f94                	ld	a3,24(a5)
    800023e6:	c2b1                	beqz	a3,0x8000242a
    800023e8:	ee14                	sd	a3,24(a2)
    800023ea:	6b90                	ld	a2,16(a5)
    800023ec:	ea90                	sd	a2,16(a3)
    800023ee:	177d                	addi	a4,a4,-1
    800023f0:	003fe697          	auipc	a3,0x3fe
    800023f4:	04e6b023          	sd	a4,64(a3) # 0x80400430
    800023f8:	a8ad                	j	0x80002472
    800023fa:	003fe717          	auipc	a4,0x3fe
    800023fe:	03670713          	addi	a4,a4,54 # 0x80400430
    80002402:	00073423          	sd	zero,8(a4)
    80002406:	00073823          	sd	zero,16(a4)
    8000240a:	00073023          	sd	zero,0(a4)
    8000240e:	a095                	j	0x80002472
    80002410:	c32d                	beqz	a4,0x80002472
    80002412:	003fe697          	auipc	a3,0x3fe
    80002416:	01e68693          	addi	a3,a3,30 # 0x80400430
    8000241a:	6690                	ld	a2,8(a3)
    8000241c:	6e10                	ld	a2,24(a2)
    8000241e:	e690                	sd	a2,8(a3)
    80002420:	00063823          	sd	zero,16(a2)
    80002424:	177d                	addi	a4,a4,-1
    80002426:	e298                	sd	a4,0(a3)
    80002428:	a0a9                	j	0x80002472
    8000242a:	c721                	beqz	a4,0x80002472
    8000242c:	003fe697          	auipc	a3,0x3fe
    80002430:	00468693          	addi	a3,a3,4 # 0x80400430
    80002434:	6a90                	ld	a2,16(a3)
    80002436:	6a10                	ld	a2,16(a2)
    80002438:	ea90                	sd	a2,16(a3)
    8000243a:	00063c23          	sd	zero,24(a2)
    8000243e:	177d                	addi	a4,a4,-1
    80002440:	e298                	sd	a4,0(a3)
    80002442:	a805                	j	0x80002472
    80002444:	e8be                	sd	a5,80(sp)
    80002446:	c4ca                	sw	s2,72(sp)
    80002448:	00b8                	addi	a4,sp,72
    8000244a:	86ce                	mv	a3,s3
    8000244c:	8622                	mv	a2,s0
    8000244e:	088c                	addi	a1,sp,80
    80002450:	8556                	mv	a0,s5
    80002452:	00000097          	auipc	ra,0x0
    80002456:	a7e080e7          	jalr	-1410(ra) # 0x80001ed0
    8000245a:	b5f1                	j	0x80002326
    8000245c:	8f15                	sub	a4,a4,a3
    8000245e:	e798                	sd	a4,8(a5)
    80002460:	003fe617          	auipc	a2,0x3fe
    80002464:	fd060613          	addi	a2,a2,-48 # 0x80400430
    80002468:	6e18                	ld	a4,24(a2)
    8000246a:	8f15                	sub	a4,a4,a3
    8000246c:	ee18                	sd	a4,24(a2)
    8000246e:	6798                	ld	a4,8(a5)
    80002470:	d32d                	beqz	a4,0x800023d2
    80002472:	6798                	ld	a4,8(a5)
    80002474:	0756                	slli	a4,a4,0x15
    80002476:	0007ba03          	ld	s4,0(a5)
    8000247a:	9a3a                	add	s4,s4,a4
    8000247c:	b505                	j	0x8000229c
    8000247e:	1141                	addi	sp,sp,-16
    80002480:	e406                	sd	ra,8(sp)
    80002482:	e022                	sd	s0,0(sp)
    80002484:	842a                	mv	s0,a0
    80002486:	10017073          	csrci	sstatus,2
    8000248a:	003fe797          	auipc	a5,0x3fe
    8000248e:	de67a783          	lw	a5,-538(a5) # 0x80400270
    80002492:	2785                	addiw	a5,a5,1
    80002494:	003fe717          	auipc	a4,0x3fe
    80002498:	dcf72e23          	sw	a5,-548(a4) # 0x80400270
    8000249c:	003fe797          	auipc	a5,0x3fe
    800024a0:	e2c78793          	addi	a5,a5,-468 # 0x804002c8
    800024a4:	6f98                	ld	a4,24(a5)
    800024a6:	02850613          	addi	a2,a0,40
    800024aa:	6f9c                	ld	a5,24(a5)
    800024ac:	cfc9                	beqz	a5,0x80002546
    800024ae:	003fe517          	auipc	a0,0x3fe
    800024b2:	e1a53503          	ld	a0,-486(a0) # 0x804002c8
    800024b6:	ed11                	bnez	a0,0x800024d2
    800024b8:	04043023          	sd	zero,64(s0)
    800024bc:	04043423          	sd	zero,72(s0)
    800024c0:	003fe797          	auipc	a5,0x3fe
    800024c4:	e0878793          	addi	a5,a5,-504 # 0x804002c8
    800024c8:	e790                	sd	a2,8(a5)
    800024ca:	eb90                	sd	a2,16(a5)
    800024cc:	4705                	li	a4,1
    800024ce:	e398                	sd	a4,0(a5)
    800024d0:	a8bd                	j	0x8000254e
    800024d2:	003fe817          	auipc	a6,0x3fe
    800024d6:	dfe83803          	ld	a6,-514(a6) # 0x804002d0
    800024da:	8742                	mv	a4,a6
    800024dc:	a011                	j	0x800024e0
    800024de:	873e                	mv	a4,a5
    800024e0:	4b1c                	lw	a5,16(a4)
    800024e2:	5c14                	lw	a3,56(s0)
    800024e4:	2781                	sext.w	a5,a5
    800024e6:	00f6c463          	blt	a3,a5,0x800024ee
    800024ea:	731c                	ld	a5,32(a4)
    800024ec:	fbed                	bnez	a5,0x800024de
    800024ee:	4b1c                	lw	a5,16(a4)
    800024f0:	5c14                	lw	a3,56(s0)
    800024f2:	2781                	sext.w	a5,a5
    800024f4:	00f6de63          	bge	a3,a5,0x80002510
    800024f8:	6f1c                	ld	a5,24(a4)
    800024fa:	cb85                	beqz	a5,0x8000252a
    800024fc:	f390                	sd	a2,32(a5)
    800024fe:	ef10                	sd	a2,24(a4)
    80002500:	e03c                	sd	a5,64(s0)
    80002502:	e438                	sd	a4,72(s0)
    80002504:	0505                	addi	a0,a0,1
    80002506:	003fe797          	auipc	a5,0x3fe
    8000250a:	dca7b123          	sd	a0,-574(a5) # 0x804002c8
    8000250e:	a081                	j	0x8000254e
    80002510:	003fe797          	auipc	a5,0x3fe
    80002514:	db878793          	addi	a5,a5,-584 # 0x804002c8
    80002518:	6b98                	ld	a4,16(a5)
    8000251a:	f310                	sd	a2,32(a4)
    8000251c:	e038                	sd	a4,64(s0)
    8000251e:	04043423          	sd	zero,72(s0)
    80002522:	eb90                	sd	a2,16(a5)
    80002524:	0505                	addi	a0,a0,1
    80002526:	e388                	sd	a0,0(a5)
    80002528:	a01d                	j	0x8000254e
    8000252a:	04043023          	sd	zero,64(s0)
    8000252e:	05043423          	sd	a6,72(s0)
    80002532:	00c83c23          	sd	a2,24(a6)
    80002536:	003fe797          	auipc	a5,0x3fe
    8000253a:	d9278793          	addi	a5,a5,-622 # 0x804002c8
    8000253e:	e790                	sd	a2,8(a5)
    80002540:	0505                	addi	a0,a0,1
    80002542:	e388                	sd	a0,0(a5)
    80002544:	a029                	j	0x8000254e
    80002546:	003fe797          	auipc	a5,0x3fe
    8000254a:	d8c7bd23          	sd	a2,-614(a5) # 0x804002e0
    8000254e:	02059793          	slli	a5,a1,0x20
    80002552:	9381                	srli	a5,a5,0x20
    80002554:	003fe517          	auipc	a0,0x3fe
    80002558:	d0c53503          	ld	a0,-756(a0) # 0x80400260
    8000255c:	cbd1                	beqz	a5,0x800025f0
    8000255e:	899d                	andi	a1,a1,7
    80002560:	c589                	beqz	a1,0x8000256a
    80002562:	0785                	addi	a5,a5,1
    80002564:	0077f713          	andi	a4,a5,7
    80002568:	ff6d                	bnez	a4,0x80002562
    8000256a:	00878593          	addi	a1,a5,8
    8000256e:	02000793          	li	a5,32
    80002572:	00f5f463          	bgeu	a1,a5,0x8000257a
    80002576:	02000593          	li	a1,32
    8000257a:	651c                	ld	a5,8(a0)
    8000257c:	cb91                	beqz	a5,0x80002590
    8000257e:	02058693          	addi	a3,a1,32
    80002582:	6798                	ld	a4,8(a5)
    80002584:	06d77863          	bgeu	a4,a3,0x800025f4
    80002588:	06e58663          	beq	a1,a4,0x800025f4
    8000258c:	6f9c                	ld	a5,24(a5)
    8000258e:	fbf5                	bnez	a5,0x80002582
    80002590:	fffff097          	auipc	ra,0xfffff
    80002594:	748080e7          	jalr	1864(ra) # 0x80001cd8
    80002598:	4701                	li	a4,0
    8000259a:	a895                	j	0x8000260e
    8000259c:	6118                	ld	a4,0(a0)
    8000259e:	4685                	li	a3,1
    800025a0:	00d70d63          	beq	a4,a3,0x800025ba
    800025a4:	6b90                	ld	a2,16(a5)
    800025a6:	c20d                	beqz	a2,0x800025c8
    800025a8:	6f94                	ld	a3,24(a5)
    800025aa:	ca8d                	beqz	a3,0x800025dc
    800025ac:	ee14                	sd	a3,24(a2)
    800025ae:	6b98                	ld	a4,16(a5)
    800025b0:	ea98                	sd	a4,16(a3)
    800025b2:	6118                	ld	a4,0(a0)
    800025b4:	177d                	addi	a4,a4,-1
    800025b6:	e118                	sd	a4,0(a0)
    800025b8:	a0a9                	j	0x80002602
    800025ba:	00053423          	sd	zero,8(a0)
    800025be:	00053823          	sd	zero,16(a0)
    800025c2:	00053023          	sd	zero,0(a0)
    800025c6:	a835                	j	0x80002602
    800025c8:	cf0d                	beqz	a4,0x80002602
    800025ca:	6518                	ld	a4,8(a0)
    800025cc:	6f18                	ld	a4,24(a4)
    800025ce:	e518                	sd	a4,8(a0)
    800025d0:	00073823          	sd	zero,16(a4)
    800025d4:	6118                	ld	a4,0(a0)
    800025d6:	177d                	addi	a4,a4,-1
    800025d8:	e118                	sd	a4,0(a0)
    800025da:	a025                	j	0x80002602
    800025dc:	c31d                	beqz	a4,0x80002602
    800025de:	6918                	ld	a4,16(a0)
    800025e0:	6b18                	ld	a4,16(a4)
    800025e2:	e918                	sd	a4,16(a0)
    800025e4:	00073c23          	sd	zero,24(a4)
    800025e8:	6118                	ld	a4,0(a0)
    800025ea:	177d                	addi	a4,a4,-1
    800025ec:	e118                	sd	a4,0(a0)
    800025ee:	a811                	j	0x80002602
    800025f0:	4701                	li	a4,0
    800025f2:	a831                	j	0x8000260e
    800025f4:	8f0d                	sub	a4,a4,a1
    800025f6:	e798                	sd	a4,8(a5)
    800025f8:	6d18                	ld	a4,24(a0)
    800025fa:	8f0d                	sub	a4,a4,a1
    800025fc:	ed18                	sd	a4,24(a0)
    800025fe:	6798                	ld	a4,8(a5)
    80002600:	df51                	beqz	a4,0x8000259c
    80002602:	6398                	ld	a4,0(a5)
    80002604:	679c                	ld	a5,8(a5)
    80002606:	97ba                	add	a5,a5,a4
    80002608:	00878713          	addi	a4,a5,8
    8000260c:	e38c                	sd	a1,0(a5)
    8000260e:	e018                	sd	a4,0(s0)
    80002610:	60a2                	ld	ra,8(sp)
    80002612:	6402                	ld	s0,0(sp)
    80002614:	0141                	addi	sp,sp,16
    80002616:	8082                	ret
    80002618:	ca01                	beqz	a2,0x80002628
    8000261a:	003fe797          	auipc	a5,0x3fe
    8000261e:	c5e7b783          	ld	a5,-930(a5) # 0x80400278
    80002622:	6798                	ld	a4,8(a5)
    80002624:	6f94                	ld	a3,24(a5)
    80002626:	ef98                	sd	a4,24(a5)
    80002628:	02b50563          	beq	a0,a1,0x80002652
    8000262c:	1141                	addi	sp,sp,-16
    8000262e:	e406                	sd	ra,8(sp)
    80002630:	491c                	lw	a5,16(a0)
    80002632:	2781                	sext.w	a5,a5
    80002634:	e399                	bnez	a5,0x8000263a
    80002636:	4785                	li	a5,1
    80002638:	c91c                	sw	a5,16(a0)
    8000263a:	0005a823          	sw	zero,16(a1)
    8000263e:	659c                	ld	a5,8(a1)
    80002640:	658c                	ld	a1,8(a1)
    80002642:	0521                	addi	a0,a0,8
    80002644:	00001097          	auipc	ra,0x1
    80002648:	71e080e7          	jalr	1822(ra) # 0x80003d62
    8000264c:	60a2                	ld	ra,8(sp)
    8000264e:	0141                	addi	sp,sp,16
    80002650:	8082                	ret
    80002652:	8082                	ret
    80002654:	715d                	addi	sp,sp,-80
    80002656:	e486                	sd	ra,72(sp)
    80002658:	e0a2                	sd	s0,64(sp)
    8000265a:	100027f3          	csrr	a5,sstatus
    8000265e:	8b89                	andi	a5,a5,2
    80002660:	eb85                	bnez	a5,0x80002690
    80002662:	003fe797          	auipc	a5,0x3fe
    80002666:	c6678793          	addi	a5,a5,-922 # 0x804002c8
    8000266a:	6f98                	ld	a4,24(a5)
    8000266c:	6308                	ld	a0,0(a4)
    8000266e:	6f98                	ld	a4,24(a5)
    80002670:	6394                	ld	a3,0(a5)
    80002672:	eaed                	bnez	a3,0x80002764
    80002674:	003fe797          	auipc	a5,0x3fe
    80002678:	c6c7b783          	ld	a5,-916(a5) # 0x804002e0
    8000267c:	4605                	li	a2,1
    8000267e:	638c                	ld	a1,0(a5)
    80002680:	00000097          	auipc	ra,0x0
    80002684:	f98080e7          	jalr	-104(ra) # 0x80002618
    80002688:	60a6                	ld	ra,72(sp)
    8000268a:	6406                	ld	s0,64(sp)
    8000268c:	6161                	addi	sp,sp,80
    8000268e:	8082                	ret
    80002690:	003fe417          	auipc	s0,0x3fe
    80002694:	bc040413          	addi	s0,s0,-1088 # 0x80400250
    80002698:	00040223          	sb	zero,4(s0)
    8000269c:	fffff097          	auipc	ra,0xfffff
    800026a0:	508080e7          	jalr	1288(ra) # 0x80001ba4
    800026a4:	4785                	li	a5,1
    800026a6:	00f40223          	sb	a5,4(s0)
    800026aa:	00002517          	auipc	a0,0x2
    800026ae:	b9e50513          	addi	a0,a0,-1122 # 0x80004248
    800026b2:	fffff097          	auipc	ra,0xfffff
    800026b6:	45a080e7          	jalr	1114(ra) # 0x80001b0c
    800026ba:	00002517          	auipc	a0,0x2
    800026be:	d6650513          	addi	a0,a0,-666 # 0x80004420
    800026c2:	fffff097          	auipc	ra,0xfffff
    800026c6:	44a080e7          	jalr	1098(ra) # 0x80001b0c
    800026ca:	00002517          	auipc	a0,0x2
    800026ce:	b9e50513          	addi	a0,a0,-1122 # 0x80004268
    800026d2:	fffff097          	auipc	ra,0xfffff
    800026d6:	43a080e7          	jalr	1082(ra) # 0x80001b0c
    800026da:	00002517          	auipc	a0,0x2
    800026de:	d5650513          	addi	a0,a0,-682 # 0x80004430
    800026e2:	fffff097          	auipc	ra,0xfffff
    800026e6:	42a080e7          	jalr	1066(ra) # 0x80001b0c
    800026ea:	00002517          	auipc	a0,0x2
    800026ee:	bce50513          	addi	a0,a0,-1074 # 0x800042b8
    800026f2:	fffff097          	auipc	ra,0xfffff
    800026f6:	41a080e7          	jalr	1050(ra) # 0x80001b0c
    800026fa:	00002517          	auipc	a0,0x2
    800026fe:	d6650513          	addi	a0,a0,-666 # 0x80004460
    80002702:	fffff097          	auipc	ra,0xfffff
    80002706:	40a080e7          	jalr	1034(ra) # 0x80001b0c
    8000270a:	00002517          	auipc	a0,0x2
    8000270e:	bfe50513          	addi	a0,a0,-1026 # 0x80004308
    80002712:	fffff097          	auipc	ra,0xfffff
    80002716:	3fa080e7          	jalr	1018(ra) # 0x80001b0c
    8000271a:	4681                	li	a3,0
    8000271c:	860a                	mv	a2,sp
    8000271e:	13400593          	li	a1,308
    80002722:	8522                	mv	a0,s0
    80002724:	fffff097          	auipc	ra,0xfffff
    80002728:	68c080e7          	jalr	1676(ra) # 0x80001db0
    8000272c:	04050793          	addi	a5,a0,64
    80002730:	00278533          	add	a0,a5,sp
    80002734:	fc050023          	sb	zero,-64(a0)
    80002738:	850a                	mv	a0,sp
    8000273a:	fffff097          	auipc	ra,0xfffff
    8000273e:	3d2080e7          	jalr	978(ra) # 0x80001b0c
    80002742:	00444503          	lbu	a0,4(s0)
    80002746:	fffff097          	auipc	ra,0xfffff
    8000274a:	460080e7          	jalr	1120(ra) # 0x80001ba6
    8000274e:	00002517          	auipc	a0,0x2
    80002752:	80250513          	addi	a0,a0,-2046 # 0x80003f50
    80002756:	fffff097          	auipc	ra,0xfffff
    8000275a:	3b6080e7          	jalr	950(ra) # 0x80001b0c
    8000275e:	47a9                	li	a5,10
    80002760:	c01c                	sw	a5,0(s0)
    80002762:	b701                	j	0x80002662
    80002764:	6f8c                	ld	a1,24(a5)
    80002766:	0087b803          	ld	a6,8(a5)
    8000276a:	8742                	mv	a4,a6
    8000276c:	a011                	j	0x80002770
    8000276e:	873e                	mv	a4,a5
    80002770:	4b1c                	lw	a5,16(a4)
    80002772:	4990                	lw	a2,16(a1)
    80002774:	2781                	sext.w	a5,a5
    80002776:	00f64463          	blt	a2,a5,0x8000277e
    8000277a:	731c                	ld	a5,32(a4)
    8000277c:	fbed                	bnez	a5,0x8000276e
    8000277e:	4b1c                	lw	a5,16(a4)
    80002780:	4990                	lw	a2,16(a1)
    80002782:	2781                	sext.w	a5,a5
    80002784:	02f65f63          	bge	a2,a5,0x800027c2
    80002788:	6f1c                	ld	a5,24(a4)
    8000278a:	cba1                	beqz	a5,0x800027da
    8000278c:	f38c                	sd	a1,32(a5)
    8000278e:	ef0c                	sd	a1,24(a4)
    80002790:	ed9c                	sd	a5,24(a1)
    80002792:	f198                	sd	a4,32(a1)
    80002794:	0685                	addi	a3,a3,1
    80002796:	003fe797          	auipc	a5,0x3fe
    8000279a:	b3278793          	addi	a5,a5,-1230 # 0x804002c8
    8000279e:	e394                	sd	a3,0(a5)
    800027a0:	679c                	ld	a5,8(a5)
    800027a2:	caa1                	beqz	a3,0x800027f2
    800027a4:	7390                	ld	a2,32(a5)
    800027a6:	003fe717          	auipc	a4,0x3fe
    800027aa:	b2270713          	addi	a4,a4,-1246 # 0x804002c8
    800027ae:	e710                	sd	a2,8(a4)
    800027b0:	00063c23          	sd	zero,24(a2)
    800027b4:	16fd                	addi	a3,a3,-1
    800027b6:	e314                	sd	a3,0(a4)
    800027b8:	003fe717          	auipc	a4,0x3fe
    800027bc:	b2f73423          	sd	a5,-1240(a4) # 0x804002e0
    800027c0:	bd55                	j	0x80002674
    800027c2:	003fe797          	auipc	a5,0x3fe
    800027c6:	b0678793          	addi	a5,a5,-1274 # 0x804002c8
    800027ca:	6b98                	ld	a4,16(a5)
    800027cc:	f30c                	sd	a1,32(a4)
    800027ce:	ed98                	sd	a4,24(a1)
    800027d0:	0205b023          	sd	zero,32(a1)
    800027d4:	eb8c                	sd	a1,16(a5)
    800027d6:	0685                	addi	a3,a3,1
    800027d8:	bf7d                	j	0x80002796
    800027da:	0005bc23          	sd	zero,24(a1)
    800027de:	0305b023          	sd	a6,32(a1)
    800027e2:	00b83c23          	sd	a1,24(a6)
    800027e6:	003fe797          	auipc	a5,0x3fe
    800027ea:	aeb7b523          	sd	a1,-1302(a5) # 0x804002d0
    800027ee:	0685                	addi	a3,a3,1
    800027f0:	b75d                	j	0x80002796
    800027f2:	4781                	li	a5,0
    800027f4:	b7d1                	j	0x800027b8
    800027f6:	1141                	addi	sp,sp,-16
    800027f8:	e406                	sd	ra,8(sp)
    800027fa:	10017073          	csrci	sstatus,2
    800027fe:	00000097          	auipc	ra,0x0
    80002802:	e56080e7          	jalr	-426(ra) # 0x80002654
    80002806:	10016073          	csrsi	sstatus,2
    8000280a:	60a2                	ld	ra,8(sp)
    8000280c:	0141                	addi	sp,sp,16
    8000280e:	8082                	ret
    80002810:	711d                	addi	sp,sp,-96
    80002812:	ec86                	sd	ra,88(sp)
    80002814:	e8a2                	sd	s0,80(sp)
    80002816:	e4a6                	sd	s1,72(sp)
    80002818:	842a                	mv	s0,a0
    8000281a:	651c                	ld	a5,8(a0)
    8000281c:	491c                	lw	a5,16(a0)
    8000281e:	2781                	sext.w	a5,a5
    80002820:	470d                	li	a4,3
    80002822:	02e78b63          	beq	a5,a4,0x80002858
    80002826:	491c                	lw	a5,16(a0)
    80002828:	2781                	sext.w	a5,a5
    8000282a:	4711                	li	a4,4
    8000282c:	02e78663          	beq	a5,a4,0x80002858
    80002830:	481c                	lw	a5,16(s0)
    80002832:	2781                	sext.w	a5,a5
    80002834:	4705                	li	a4,1
    80002836:	00e78563          	beq	a5,a4,0x80002840
    8000283a:	481c                	lw	a5,16(s0)
    8000283c:	2781                	sext.w	a5,a5
    8000283e:	e7fd                	bnez	a5,0x8000292c
    80002840:	481c                	lw	a5,16(s0)
    80002842:	2781                	sext.w	a5,a5
    80002844:	4705                	li	a4,1
    80002846:	1ae78f63          	beq	a5,a4,0x80002a04
    8000284a:	10016073          	csrsi	sstatus,2
    8000284e:	60e6                	ld	ra,88(sp)
    80002850:	6446                	ld	s0,80(sp)
    80002852:	64a6                	ld	s1,72(sp)
    80002854:	6125                	addi	sp,sp,96
    80002856:	8082                	ret
    80002858:	003fe497          	auipc	s1,0x3fe
    8000285c:	9f848493          	addi	s1,s1,-1544 # 0x80400250
    80002860:	00048223          	sb	zero,4(s1)
    80002864:	fffff097          	auipc	ra,0xfffff
    80002868:	340080e7          	jalr	832(ra) # 0x80001ba4
    8000286c:	4785                	li	a5,1
    8000286e:	00f48223          	sb	a5,4(s1)
    80002872:	00002517          	auipc	a0,0x2
    80002876:	9d650513          	addi	a0,a0,-1578 # 0x80004248
    8000287a:	fffff097          	auipc	ra,0xfffff
    8000287e:	292080e7          	jalr	658(ra) # 0x80001b0c
    80002882:	00002517          	auipc	a0,0x2
    80002886:	bee50513          	addi	a0,a0,-1042 # 0x80004470
    8000288a:	fffff097          	auipc	ra,0xfffff
    8000288e:	282080e7          	jalr	642(ra) # 0x80001b0c
    80002892:	00002517          	auipc	a0,0x2
    80002896:	9d650513          	addi	a0,a0,-1578 # 0x80004268
    8000289a:	fffff097          	auipc	ra,0xfffff
    8000289e:	272080e7          	jalr	626(ra) # 0x80001b0c
    800028a2:	00002517          	auipc	a0,0x2
    800028a6:	bfe50513          	addi	a0,a0,-1026 # 0x800044a0
    800028aa:	fffff097          	auipc	ra,0xfffff
    800028ae:	262080e7          	jalr	610(ra) # 0x80001b0c
    800028b2:	00002517          	auipc	a0,0x2
    800028b6:	a0650513          	addi	a0,a0,-1530 # 0x800042b8
    800028ba:	fffff097          	auipc	ra,0xfffff
    800028be:	252080e7          	jalr	594(ra) # 0x80001b0c
    800028c2:	00002517          	auipc	a0,0x2
    800028c6:	b9e50513          	addi	a0,a0,-1122 # 0x80004460
    800028ca:	fffff097          	auipc	ra,0xfffff
    800028ce:	242080e7          	jalr	578(ra) # 0x80001b0c
    800028d2:	00002517          	auipc	a0,0x2
    800028d6:	a3650513          	addi	a0,a0,-1482 # 0x80004308
    800028da:	fffff097          	auipc	ra,0xfffff
    800028de:	232080e7          	jalr	562(ra) # 0x80001b0c
    800028e2:	4681                	li	a3,0
    800028e4:	860a                	mv	a2,sp
    800028e6:	02800593          	li	a1,40
    800028ea:	8526                	mv	a0,s1
    800028ec:	fffff097          	auipc	ra,0xfffff
    800028f0:	4c4080e7          	jalr	1220(ra) # 0x80001db0
    800028f4:	04050793          	addi	a5,a0,64
    800028f8:	00278533          	add	a0,a5,sp
    800028fc:	fc050023          	sb	zero,-64(a0)
    80002900:	850a                	mv	a0,sp
    80002902:	fffff097          	auipc	ra,0xfffff
    80002906:	20a080e7          	jalr	522(ra) # 0x80001b0c
    8000290a:	0044c503          	lbu	a0,4(s1)
    8000290e:	fffff097          	auipc	ra,0xfffff
    80002912:	298080e7          	jalr	664(ra) # 0x80001ba6
    80002916:	00001517          	auipc	a0,0x1
    8000291a:	63a50513          	addi	a0,a0,1594 # 0x80003f50
    8000291e:	fffff097          	auipc	ra,0xfffff
    80002922:	1ee080e7          	jalr	494(ra) # 0x80001b0c
    80002926:	47a9                	li	a5,10
    80002928:	c09c                	sw	a5,0(s1)
    8000292a:	b719                	j	0x80002830
    8000292c:	003fe797          	auipc	a5,0x3fe
    80002930:	99c78793          	addi	a5,a5,-1636 # 0x804002c8
    80002934:	6f98                	ld	a4,24(a5)
    80002936:	6f98                	ld	a4,24(a5)
    80002938:	02840793          	addi	a5,s0,40
    8000293c:	02f70763          	beq	a4,a5,0x8000296a
    80002940:	003fe797          	auipc	a5,0x3fe
    80002944:	9887b783          	ld	a5,-1656(a5) # 0x804002c8
    80002948:	4705                	li	a4,1
    8000294a:	06e78663          	beq	a5,a4,0x800029b6
    8000294e:	6038                	ld	a4,64(s0)
    80002950:	cf35                	beqz	a4,0x800029cc
    80002952:	6434                	ld	a3,72(s0)
    80002954:	cad1                	beqz	a3,0x800029e8
    80002956:	f314                	sd	a3,32(a4)
    80002958:	6438                	ld	a4,72(s0)
    8000295a:	6034                	ld	a3,64(s0)
    8000295c:	ef14                	sd	a3,24(a4)
    8000295e:	17fd                	addi	a5,a5,-1
    80002960:	003fe717          	auipc	a4,0x3fe
    80002964:	96f73423          	sd	a5,-1688(a4) # 0x804002c8
    80002968:	bde1                	j	0x80002840
    8000296a:	003fe797          	auipc	a5,0x3fe
    8000296e:	95e78793          	addi	a5,a5,-1698 # 0x804002c8
    80002972:	6798                	ld	a4,8(a5)
    80002974:	639c                	ld	a5,0(a5)
    80002976:	cf95                	beqz	a5,0x800029b2
    80002978:	4685                	li	a3,1
    8000297a:	02d78163          	beq	a5,a3,0x8000299c
    8000297e:	7310                	ld	a2,32(a4)
    80002980:	003fe697          	auipc	a3,0x3fe
    80002984:	94868693          	addi	a3,a3,-1720 # 0x804002c8
    80002988:	e690                	sd	a2,8(a3)
    8000298a:	00063c23          	sd	zero,24(a2)
    8000298e:	17fd                	addi	a5,a5,-1
    80002990:	e29c                	sd	a5,0(a3)
    80002992:	003fe797          	auipc	a5,0x3fe
    80002996:	94e7b723          	sd	a4,-1714(a5) # 0x804002e0
    8000299a:	b55d                	j	0x80002840
    8000299c:	003fe797          	auipc	a5,0x3fe
    800029a0:	92c78793          	addi	a5,a5,-1748 # 0x804002c8
    800029a4:	0007b423          	sd	zero,8(a5)
    800029a8:	0007b823          	sd	zero,16(a5)
    800029ac:	0007b023          	sd	zero,0(a5)
    800029b0:	b7cd                	j	0x80002992
    800029b2:	4701                	li	a4,0
    800029b4:	bff9                	j	0x80002992
    800029b6:	003fe797          	auipc	a5,0x3fe
    800029ba:	91278793          	addi	a5,a5,-1774 # 0x804002c8
    800029be:	0007b423          	sd	zero,8(a5)
    800029c2:	0007b823          	sd	zero,16(a5)
    800029c6:	0007b023          	sd	zero,0(a5)
    800029ca:	bd9d                	j	0x80002840
    800029cc:	e6078ae3          	beqz	a5,0x80002840
    800029d0:	003fe717          	auipc	a4,0x3fe
    800029d4:	8f870713          	addi	a4,a4,-1800 # 0x804002c8
    800029d8:	6714                	ld	a3,8(a4)
    800029da:	7294                	ld	a3,32(a3)
    800029dc:	e714                	sd	a3,8(a4)
    800029de:	0006bc23          	sd	zero,24(a3)
    800029e2:	17fd                	addi	a5,a5,-1
    800029e4:	e31c                	sd	a5,0(a4)
    800029e6:	bda9                	j	0x80002840
    800029e8:	e4078ce3          	beqz	a5,0x80002840
    800029ec:	003fe717          	auipc	a4,0x3fe
    800029f0:	8dc70713          	addi	a4,a4,-1828 # 0x804002c8
    800029f4:	6b14                	ld	a3,16(a4)
    800029f6:	6e94                	ld	a3,24(a3)
    800029f8:	eb14                	sd	a3,16(a4)
    800029fa:	0206b023          	sd	zero,32(a3)
    800029fe:	17fd                	addi	a5,a5,-1
    80002a00:	e31c                	sd	a5,0(a4)
    80002a02:	bd3d                	j	0x80002840
    80002a04:	5c18                	lw	a4,56(s0)
    80002a06:	2701                	sext.w	a4,a4
    80002a08:	800007b7          	lui	a5,0x80000
    80002a0c:	fff7c793          	not	a5,a5
    80002a10:	e2f70de3          	beq	a4,a5,0x8000284a
    80002a14:	00000097          	auipc	ra,0x0
    80002a18:	c40080e7          	jalr	-960(ra) # 0x80002654
    80002a1c:	b53d                	j	0x8000284a
    80002a1e:	1141                	addi	sp,sp,-16
    80002a20:	e406                	sd	ra,8(sp)
    80002a22:	872a                	mv	a4,a0
    80002a24:	10017073          	csrci	sstatus,2
    80002a28:	003fe797          	auipc	a5,0x3fe
    80002a2c:	8a078793          	addi	a5,a5,-1888 # 0x804002c8
    80002a30:	6f94                	ld	a3,24(a5)
    80002a32:	6f94                	ld	a3,24(a5)
    80002a34:	6288                	ld	a0,0(a3)
    80002a36:	6f94                	ld	a3,24(a5)
    80002a38:	6f94                	ld	a3,24(a5)
    80002a3a:	02850793          	addi	a5,a0,40
    80002a3e:	08f68763          	beq	a3,a5,0x80002acc
    80002a42:	003fe797          	auipc	a5,0x3fe
    80002a46:	8867b783          	ld	a5,-1914(a5) # 0x804002c8
    80002a4a:	4685                	li	a3,1
    80002a4c:	0cd78663          	beq	a5,a3,0x80002b18
    80002a50:	6134                	ld	a3,64(a0)
    80002a52:	cef1                	beqz	a3,0x80002b2e
    80002a54:	6530                	ld	a2,72(a0)
    80002a56:	ca6d                	beqz	a2,0x80002b48
    80002a58:	f290                	sd	a2,32(a3)
    80002a5a:	6534                	ld	a3,72(a0)
    80002a5c:	6130                	ld	a2,64(a0)
    80002a5e:	ee90                	sd	a2,24(a3)
    80002a60:	17fd                	addi	a5,a5,-1
    80002a62:	003fe697          	auipc	a3,0x3fe
    80002a66:	86f6b323          	sd	a5,-1946(a3) # 0x804002c8
    80002a6a:	4791                	li	a5,4
    80002a6c:	c91c                	sw	a5,16(a0)
    80002a6e:	611c                	ld	a5,0(a0)
    80002a70:	c398                	sw	a4,0(a5)
    80002a72:	003fd797          	auipc	a5,0x3fd
    80002a76:	7fe7a783          	lw	a5,2046(a5) # 0x80400270
    80002a7a:	37fd                	addiw	a5,a5,-1
    80002a7c:	003fd717          	auipc	a4,0x3fd
    80002a80:	7ef72a23          	sw	a5,2036(a4) # 0x80400270
    80002a84:	711c                	ld	a5,32(a0)
    80002a86:	16078063          	beqz	a5,0x80002be6
    80002a8a:	711c                	ld	a5,32(a0)
    80002a8c:	4705                	li	a4,1
    80002a8e:	cb98                	sw	a4,16(a5)
    80002a90:	7114                	ld	a3,32(a0)
    80002a92:	003fe797          	auipc	a5,0x3fe
    80002a96:	83678793          	addi	a5,a5,-1994 # 0x804002c8
    80002a9a:	6f98                	ld	a4,24(a5)
    80002a9c:	02868593          	addi	a1,a3,40
    80002aa0:	6f9c                	ld	a5,24(a5)
    80002aa2:	12078c63          	beqz	a5,0x80002bda
    80002aa6:	003fe817          	auipc	a6,0x3fe
    80002aaa:	82283803          	ld	a6,-2014(a6) # 0x804002c8
    80002aae:	0a081a63          	bnez	a6,0x80002b62
    80002ab2:	0406b023          	sd	zero,64(a3)
    80002ab6:	0406b423          	sd	zero,72(a3)
    80002aba:	003fe797          	auipc	a5,0x3fe
    80002abe:	80e78793          	addi	a5,a5,-2034 # 0x804002c8
    80002ac2:	e78c                	sd	a1,8(a5)
    80002ac4:	eb8c                	sd	a1,16(a5)
    80002ac6:	4705                	li	a4,1
    80002ac8:	e398                	sd	a4,0(a5)
    80002aca:	aa21                	j	0x80002be2
    80002acc:	003fd797          	auipc	a5,0x3fd
    80002ad0:	7fc78793          	addi	a5,a5,2044 # 0x804002c8
    80002ad4:	6794                	ld	a3,8(a5)
    80002ad6:	639c                	ld	a5,0(a5)
    80002ad8:	cf95                	beqz	a5,0x80002b14
    80002ada:	4605                	li	a2,1
    80002adc:	02c78163          	beq	a5,a2,0x80002afe
    80002ae0:	728c                	ld	a1,32(a3)
    80002ae2:	003fd617          	auipc	a2,0x3fd
    80002ae6:	7e660613          	addi	a2,a2,2022 # 0x804002c8
    80002aea:	e60c                	sd	a1,8(a2)
    80002aec:	0005bc23          	sd	zero,24(a1)
    80002af0:	17fd                	addi	a5,a5,-1
    80002af2:	e21c                	sd	a5,0(a2)
    80002af4:	003fd797          	auipc	a5,0x3fd
    80002af8:	7ed7b623          	sd	a3,2028(a5) # 0x804002e0
    80002afc:	b7bd                	j	0x80002a6a
    80002afe:	003fd797          	auipc	a5,0x3fd
    80002b02:	7ca78793          	addi	a5,a5,1994 # 0x804002c8
    80002b06:	0007b423          	sd	zero,8(a5)
    80002b0a:	0007b823          	sd	zero,16(a5)
    80002b0e:	0007b023          	sd	zero,0(a5)
    80002b12:	b7cd                	j	0x80002af4
    80002b14:	4681                	li	a3,0
    80002b16:	bff9                	j	0x80002af4
    80002b18:	003fd797          	auipc	a5,0x3fd
    80002b1c:	7b078793          	addi	a5,a5,1968 # 0x804002c8
    80002b20:	0007b423          	sd	zero,8(a5)
    80002b24:	0007b823          	sd	zero,16(a5)
    80002b28:	0007b023          	sd	zero,0(a5)
    80002b2c:	bf3d                	j	0x80002a6a
    80002b2e:	df95                	beqz	a5,0x80002a6a
    80002b30:	003fd697          	auipc	a3,0x3fd
    80002b34:	79868693          	addi	a3,a3,1944 # 0x804002c8
    80002b38:	6690                	ld	a2,8(a3)
    80002b3a:	7210                	ld	a2,32(a2)
    80002b3c:	e690                	sd	a2,8(a3)
    80002b3e:	00063c23          	sd	zero,24(a2)
    80002b42:	17fd                	addi	a5,a5,-1
    80002b44:	e29c                	sd	a5,0(a3)
    80002b46:	b715                	j	0x80002a6a
    80002b48:	d38d                	beqz	a5,0x80002a6a
    80002b4a:	003fd697          	auipc	a3,0x3fd
    80002b4e:	77e68693          	addi	a3,a3,1918 # 0x804002c8
    80002b52:	6a90                	ld	a2,16(a3)
    80002b54:	6e10                	ld	a2,24(a2)
    80002b56:	ea90                	sd	a2,16(a3)
    80002b58:	02063023          	sd	zero,32(a2)
    80002b5c:	17fd                	addi	a5,a5,-1
    80002b5e:	e29c                	sd	a5,0(a3)
    80002b60:	b729                	j	0x80002a6a
    80002b62:	003fd897          	auipc	a7,0x3fd
    80002b66:	76e8b883          	ld	a7,1902(a7) # 0x804002d0
    80002b6a:	8746                	mv	a4,a7
    80002b6c:	a011                	j	0x80002b70
    80002b6e:	873e                	mv	a4,a5
    80002b70:	4b1c                	lw	a5,16(a4)
    80002b72:	5e90                	lw	a2,56(a3)
    80002b74:	2781                	sext.w	a5,a5
    80002b76:	00f64463          	blt	a2,a5,0x80002b7e
    80002b7a:	731c                	ld	a5,32(a4)
    80002b7c:	fbed                	bnez	a5,0x80002b6e
    80002b7e:	4b1c                	lw	a5,16(a4)
    80002b80:	5e90                	lw	a2,56(a3)
    80002b82:	2781                	sext.w	a5,a5
    80002b84:	00f65e63          	bge	a2,a5,0x80002ba0
    80002b88:	6f1c                	ld	a5,24(a4)
    80002b8a:	cb8d                	beqz	a5,0x80002bbc
    80002b8c:	f38c                	sd	a1,32(a5)
    80002b8e:	ef0c                	sd	a1,24(a4)
    80002b90:	e2bc                	sd	a5,64(a3)
    80002b92:	e6b8                	sd	a4,72(a3)
    80002b94:	0805                	addi	a6,a6,1
    80002b96:	003fd797          	auipc	a5,0x3fd
    80002b9a:	7307b923          	sd	a6,1842(a5) # 0x804002c8
    80002b9e:	a091                	j	0x80002be2
    80002ba0:	003fd797          	auipc	a5,0x3fd
    80002ba4:	72878793          	addi	a5,a5,1832 # 0x804002c8
    80002ba8:	6b98                	ld	a4,16(a5)
    80002baa:	f30c                	sd	a1,32(a4)
    80002bac:	e2b8                	sd	a4,64(a3)
    80002bae:	0406b423          	sd	zero,72(a3)
    80002bb2:	eb8c                	sd	a1,16(a5)
    80002bb4:	0805                	addi	a6,a6,1
    80002bb6:	0107b023          	sd	a6,0(a5)
    80002bba:	a025                	j	0x80002be2
    80002bbc:	0406b023          	sd	zero,64(a3)
    80002bc0:	0516b423          	sd	a7,72(a3)
    80002bc4:	00b8bc23          	sd	a1,24(a7)
    80002bc8:	003fd797          	auipc	a5,0x3fd
    80002bcc:	70078793          	addi	a5,a5,1792 # 0x804002c8
    80002bd0:	e78c                	sd	a1,8(a5)
    80002bd2:	0805                	addi	a6,a6,1
    80002bd4:	0107b023          	sd	a6,0(a5)
    80002bd8:	a029                	j	0x80002be2
    80002bda:	003fd797          	auipc	a5,0x3fd
    80002bde:	70b7b323          	sd	a1,1798(a5) # 0x804002e0
    80002be2:	02053023          	sd	zero,32(a0)
    80002be6:	003fd797          	auipc	a5,0x3fd
    80002bea:	6e278793          	addi	a5,a5,1762 # 0x804002c8
    80002bee:	6f98                	ld	a4,24(a5)
    80002bf0:	6394                	ld	a3,0(a5)
    80002bf2:	e285                	bnez	a3,0x80002c12
    80002bf4:	003fd797          	auipc	a5,0x3fd
    80002bf8:	6ec7b783          	ld	a5,1772(a5) # 0x804002e0
    80002bfc:	4605                	li	a2,1
    80002bfe:	638c                	ld	a1,0(a5)
    80002c00:	00000097          	auipc	ra,0x0
    80002c04:	a18080e7          	jalr	-1512(ra) # 0x80002618
    80002c08:	10016073          	csrsi	sstatus,2
    80002c0c:	60a2                	ld	ra,8(sp)
    80002c0e:	0141                	addi	sp,sp,16
    80002c10:	8082                	ret
    80002c12:	6f8c                	ld	a1,24(a5)
    80002c14:	0087b803          	ld	a6,8(a5)
    80002c18:	8742                	mv	a4,a6
    80002c1a:	a011                	j	0x80002c1e
    80002c1c:	873e                	mv	a4,a5
    80002c1e:	4b1c                	lw	a5,16(a4)
    80002c20:	4990                	lw	a2,16(a1)
    80002c22:	2781                	sext.w	a5,a5
    80002c24:	00f64463          	blt	a2,a5,0x80002c2c
    80002c28:	731c                	ld	a5,32(a4)
    80002c2a:	fbed                	bnez	a5,0x80002c1c
    80002c2c:	4b1c                	lw	a5,16(a4)
    80002c2e:	4990                	lw	a2,16(a1)
    80002c30:	2781                	sext.w	a5,a5
    80002c32:	02f65f63          	bge	a2,a5,0x80002c70
    80002c36:	6f1c                	ld	a5,24(a4)
    80002c38:	cba1                	beqz	a5,0x80002c88
    80002c3a:	f38c                	sd	a1,32(a5)
    80002c3c:	ef0c                	sd	a1,24(a4)
    80002c3e:	ed9c                	sd	a5,24(a1)
    80002c40:	f198                	sd	a4,32(a1)
    80002c42:	0685                	addi	a3,a3,1
    80002c44:	003fd797          	auipc	a5,0x3fd
    80002c48:	68478793          	addi	a5,a5,1668 # 0x804002c8
    80002c4c:	e394                	sd	a3,0(a5)
    80002c4e:	679c                	ld	a5,8(a5)
    80002c50:	caa1                	beqz	a3,0x80002ca0
    80002c52:	7390                	ld	a2,32(a5)
    80002c54:	003fd717          	auipc	a4,0x3fd
    80002c58:	67470713          	addi	a4,a4,1652 # 0x804002c8
    80002c5c:	e710                	sd	a2,8(a4)
    80002c5e:	00063c23          	sd	zero,24(a2)
    80002c62:	16fd                	addi	a3,a3,-1
    80002c64:	e314                	sd	a3,0(a4)
    80002c66:	003fd717          	auipc	a4,0x3fd
    80002c6a:	66f73d23          	sd	a5,1658(a4) # 0x804002e0
    80002c6e:	b759                	j	0x80002bf4
    80002c70:	003fd797          	auipc	a5,0x3fd
    80002c74:	65878793          	addi	a5,a5,1624 # 0x804002c8
    80002c78:	6b98                	ld	a4,16(a5)
    80002c7a:	f30c                	sd	a1,32(a4)
    80002c7c:	ed98                	sd	a4,24(a1)
    80002c7e:	0205b023          	sd	zero,32(a1)
    80002c82:	eb8c                	sd	a1,16(a5)
    80002c84:	0685                	addi	a3,a3,1
    80002c86:	bf7d                	j	0x80002c44
    80002c88:	0005bc23          	sd	zero,24(a1)
    80002c8c:	0305b023          	sd	a6,32(a1)
    80002c90:	00b83c23          	sd	a1,24(a6)
    80002c94:	003fd797          	auipc	a5,0x3fd
    80002c98:	62b7be23          	sd	a1,1596(a5) # 0x804002d0
    80002c9c:	0685                	addi	a3,a3,1
    80002c9e:	b75d                	j	0x80002c44
    80002ca0:	4781                	li	a5,0
    80002ca2:	b7d1                	j	0x80002c66
    80002ca4:	1101                	addi	sp,sp,-32
    80002ca6:	ec06                	sd	ra,24(sp)
    80002ca8:	e822                	sd	s0,16(sp)
    80002caa:	e426                	sd	s1,8(sp)
    80002cac:	003fd797          	auipc	a5,0x3fd
    80002cb0:	6347b783          	ld	a5,1588(a5) # 0x804002e0
    80002cb4:	003fd717          	auipc	a4,0x3fd
    80002cb8:	5bc72703          	lw	a4,1468(a4) # 0x80400270
    80002cbc:	4785                	li	a5,1
    80002cbe:	00e7ff63          	bgeu	a5,a4,0x80002cdc
    80002cc2:	003fd697          	auipc	a3,0x3fd
    80002cc6:	5ae68693          	addi	a3,a3,1454 # 0x80400270
    80002cca:	4705                	li	a4,1
    80002ccc:	10016073          	csrsi	sstatus,2
    80002cd0:	10500073          	wfi
    80002cd4:	429c                	lw	a5,0(a3)
    80002cd6:	2781                	sext.w	a5,a5
    80002cd8:	fef76ae3          	bltu	a4,a5,0x80002ccc
    80002cdc:	10017073          	csrci	sstatus,2
    80002ce0:	003fd417          	auipc	s0,0x3fd
    80002ce4:	57040413          	addi	s0,s0,1392 # 0x80400250
    80002ce8:	00040223          	sb	zero,4(s0)
    80002cec:	fffff097          	auipc	ra,0xfffff
    80002cf0:	eb8080e7          	jalr	-328(ra) # 0x80001ba4
    80002cf4:	00002517          	auipc	a0,0x2
    80002cf8:	80450513          	addi	a0,a0,-2044 # 0x800044f8
    80002cfc:	fffff097          	auipc	ra,0xfffff
    80002d00:	e10080e7          	jalr	-496(ra) # 0x80001b0c
    80002d04:	00444503          	lbu	a0,4(s0)
    80002d08:	fffff097          	auipc	ra,0xfffff
    80002d0c:	e9e080e7          	jalr	-354(ra) # 0x80001ba6
    80002d10:	00001517          	auipc	a0,0x1
    80002d14:	24050513          	addi	a0,a0,576 # 0x80003f50
    80002d18:	fffff097          	auipc	ra,0xfffff
    80002d1c:	df4080e7          	jalr	-524(ra) # 0x80001b0c
    80002d20:	44a9                	li	s1,10
    80002d22:	c004                	sw	s1,0(s0)
    80002d24:	00040223          	sb	zero,4(s0)
    80002d28:	fffff097          	auipc	ra,0xfffff
    80002d2c:	e7c080e7          	jalr	-388(ra) # 0x80001ba4
    80002d30:	00001517          	auipc	a0,0x1
    80002d34:	7e850513          	addi	a0,a0,2024 # 0x80004518
    80002d38:	fffff097          	auipc	ra,0xfffff
    80002d3c:	dd4080e7          	jalr	-556(ra) # 0x80001b0c
    80002d40:	00444503          	lbu	a0,4(s0)
    80002d44:	fffff097          	auipc	ra,0xfffff
    80002d48:	e62080e7          	jalr	-414(ra) # 0x80001ba6
    80002d4c:	00001517          	auipc	a0,0x1
    80002d50:	20450513          	addi	a0,a0,516 # 0x80003f50
    80002d54:	fffff097          	auipc	ra,0xfffff
    80002d58:	db8080e7          	jalr	-584(ra) # 0x80001b0c
    80002d5c:	c004                	sw	s1,0(s0)
    80002d5e:	00001097          	auipc	ra,0x1
    80002d62:	e68080e7          	jalr	-408(ra) # 0x80003bc6
    80002d66:	a001                	j	0x80002d66
    80002d68:	003fd797          	auipc	a5,0x3fd
    80002d6c:	56078793          	addi	a5,a5,1376 # 0x804002c8
    80002d70:	0007b023          	sd	zero,0(a5)
    80002d74:	0007b423          	sd	zero,8(a5)
    80002d78:	0007b823          	sd	zero,16(a5)
    80002d7c:	0007bc23          	sd	zero,24(a5)
    80002d80:	8082                	ret
    80002d82:	1141                	addi	sp,sp,-16
    80002d84:	e406                	sd	ra,8(sp)
    80002d86:	00000097          	auipc	ra,0x0
    80002d8a:	128080e7          	jalr	296(ra) # 0x80002eae
    80002d8e:	60a2                	ld	ra,8(sp)
    80002d90:	0141                	addi	sp,sp,16
    80002d92:	8082                	ret
    80002d94:	6d1c                	ld	a5,24(a0)
    80002d96:	6598                	ld	a4,8(a1)
    80002d98:	97ba                	add	a5,a5,a4
    80002d9a:	ed1c                	sd	a5,24(a0)
    80002d9c:	0006b023          	sd	zero,0(a3)
    80002da0:	00063023          	sd	zero,0(a2)
    80002da4:	0005b303          	ld	t1,0(a1)
    80002da8:	0085b883          	ld	a7,8(a1)
    80002dac:	08d6                	slli	a7,a7,0x15
    80002dae:	989a                	add	a7,a7,t1
    80002db0:	651c                	ld	a5,8(a0)
    80002db2:	c3dd                	beqz	a5,0x80002e58
    80002db4:	873e                	mv	a4,a5
    80002db6:	00073803          	ld	a6,0(a4)
    80002dba:	01088463          	beq	a7,a6,0x80002dc2
    80002dbe:	6f18                	ld	a4,24(a4)
    80002dc0:	fb7d                	bnez	a4,0x80002db6
    80002dc2:	0087b883          	ld	a7,8(a5)
    80002dc6:	08d6                	slli	a7,a7,0x15
    80002dc8:	0007b803          	ld	a6,0(a5)
    80002dcc:	9846                	add	a6,a6,a7
    80002dce:	09030763          	beq	t1,a6,0x80002e5c
    80002dd2:	6f9c                	ld	a5,24(a5)
    80002dd4:	f7fd                	bnez	a5,0x80002dc2
    80002dd6:	01053803          	ld	a6,16(a0)
    80002dda:	611c                	ld	a5,0(a0)
    80002ddc:	cb99                	beqz	a5,0x80002df2
    80002dde:	00b83c23          	sd	a1,24(a6)
    80002de2:	691c                	ld	a5,16(a0)
    80002de4:	e99c                	sd	a5,16(a1)
    80002de6:	0005bc23          	sd	zero,24(a1)
    80002dea:	e90c                	sd	a1,16(a0)
    80002dec:	611c                	ld	a5,0(a0)
    80002dee:	0785                	addi	a5,a5,1
    80002df0:	a809                	j	0x80002e02
    80002df2:	0005b823          	sd	zero,16(a1)
    80002df6:	0005bc23          	sd	zero,24(a1)
    80002dfa:	e50c                	sd	a1,8(a0)
    80002dfc:	e90c                	sd	a1,16(a0)
    80002dfe:	611c                	ld	a5,0(a0)
    80002e00:	0785                	addi	a5,a5,1
    80002e02:	e11c                	sd	a5,0(a0)
    80002e04:	4781                	li	a5,0
    80002e06:	ef21                	bnez	a4,0x80002e5e
    80002e08:	8082                	ret
    80002e0a:	00053423          	sd	zero,8(a0)
    80002e0e:	00053823          	sd	zero,16(a0)
    80002e12:	00053023          	sd	zero,0(a0)
    80002e16:	a059                	j	0x80002e9c
    80002e18:	08080263          	beqz	a6,0x80002e9c
    80002e1c:	00853803          	ld	a6,8(a0)
    80002e20:	01883803          	ld	a6,24(a6)
    80002e24:	01053423          	sd	a6,8(a0)
    80002e28:	00083823          	sd	zero,16(a6)
    80002e2c:	00053803          	ld	a6,0(a0)
    80002e30:	187d                	addi	a6,a6,-1
    80002e32:	01053023          	sd	a6,0(a0)
    80002e36:	a09d                	j	0x80002e9c
    80002e38:	06080263          	beqz	a6,0x80002e9c
    80002e3c:	01053803          	ld	a6,16(a0)
    80002e40:	01083803          	ld	a6,16(a6)
    80002e44:	01053823          	sd	a6,16(a0)
    80002e48:	00083c23          	sd	zero,24(a6)
    80002e4c:	00053803          	ld	a6,0(a0)
    80002e50:	187d                	addi	a6,a6,-1
    80002e52:	01053023          	sd	a6,0(a0)
    80002e56:	a099                	j	0x80002e9c
    80002e58:	873e                	mv	a4,a5
    80002e5a:	bfb5                	j	0x80002dd6
    80002e5c:	c331                	beqz	a4,0x80002ea0
    80002e5e:	0085b803          	ld	a6,8(a1)
    80002e62:	00873883          	ld	a7,8(a4)
    80002e66:	9846                	add	a6,a6,a7
    80002e68:	0105b423          	sd	a6,8(a1)
    80002e6c:	00053803          	ld	a6,0(a0)
    80002e70:	4885                	li	a7,1
    80002e72:	f9180ce3          	beq	a6,a7,0x80002e0a
    80002e76:	01073303          	ld	t1,16(a4)
    80002e7a:	f8030fe3          	beqz	t1,0x80002e18
    80002e7e:	01873883          	ld	a7,24(a4)
    80002e82:	fa088be3          	beqz	a7,0x80002e38
    80002e86:	01133c23          	sd	a7,24(t1)
    80002e8a:	01073803          	ld	a6,16(a4)
    80002e8e:	0108b823          	sd	a6,16(a7)
    80002e92:	00053803          	ld	a6,0(a0)
    80002e96:	187d                	addi	a6,a6,-1
    80002e98:	01053023          	sd	a6,0(a0)
    80002e9c:	e218                	sd	a4,0(a2)
    80002e9e:	c799                	beqz	a5,0x80002eac
    80002ea0:	6798                	ld	a4,8(a5)
    80002ea2:	6590                	ld	a2,8(a1)
    80002ea4:	9732                	add	a4,a4,a2
    80002ea6:	e798                	sd	a4,8(a5)
    80002ea8:	e28c                	sd	a1,0(a3)
    80002eaa:	8082                	ret
    80002eac:	8082                	ret
    80002eae:	1101                	addi	sp,sp,-32
    80002eb0:	ec06                	sd	ra,24(sp)
    80002eb2:	4785                	li	a5,1
    80002eb4:	01f79593          	slli	a1,a5,0x1f
    80002eb8:	e18c                	sd	a1,0(a1)
    80002eba:	e59c                	sd	a5,8(a1)
    80002ebc:	0005b823          	sd	zero,16(a1)
    80002ec0:	0005bc23          	sd	zero,24(a1)
    80002ec4:	0034                	addi	a3,sp,8
    80002ec6:	860a                	mv	a2,sp
    80002ec8:	003fd517          	auipc	a0,0x3fd
    80002ecc:	54850513          	addi	a0,a0,1352 # 0x80400410
    80002ed0:	ffffe097          	auipc	ra,0xffffe
    80002ed4:	12c080e7          	jalr	300(ra) # 0x80000ffc
    80002ed8:	45c5                	li	a1,17
    80002eda:	05ee                	slli	a1,a1,0x1b
    80002edc:	e18c                	sd	a1,0(a1)
    80002ede:	20000793          	li	a5,512
    80002ee2:	e59c                	sd	a5,8(a1)
    80002ee4:	0005b823          	sd	zero,16(a1)
    80002ee8:	0005bc23          	sd	zero,24(a1)
    80002eec:	0034                	addi	a3,sp,8
    80002eee:	860a                	mv	a2,sp
    80002ef0:	003fd517          	auipc	a0,0x3fd
    80002ef4:	54050513          	addi	a0,a0,1344 # 0x80400430
    80002ef8:	00000097          	auipc	ra,0x0
    80002efc:	e9c080e7          	jalr	-356(ra) # 0x80002d94
    80002f00:	60e2                	ld	ra,24(sp)
    80002f02:	6105                	addi	sp,sp,32
    80002f04:	8082                	ret
    80002f06:	4785                	li	a5,1
    80002f08:	00001717          	auipc	a4,0x1
    80002f0c:	85070713          	addi	a4,a4,-1968 # 0x80003758
    80002f10:	1782                	slli	a5,a5,0x20
    80002f12:	17f1                	addi	a5,a5,-4
    80002f14:	8ff9                	and	a5,a5,a4
    80002f16:	10579073          	csrw	stvec,a5
    80002f1a:	003fd797          	auipc	a5,0x3fd
    80002f1e:	37e78793          	addi	a5,a5,894 # 0x80400298
    80002f22:	00078023          	sb	zero,0(a5)
    80002f26:	0007a223          	sw	zero,4(a5)
    80002f2a:	10010737          	lui	a4,0x10010
    80002f2e:	67c1                	lui	a5,0x10
    80002f30:	0785                	addi	a5,a5,1 # 0x10001
    80002f32:	c71c                	sw	a5,8(a4)
    80002f34:	c75c                	sw	a5,12(a4)
    80002f36:	6785                	lui	a5,0x1
    80002f38:	0f378793          	addi	a5,a5,243 # 0x10f3
    80002f3c:	cf1c                	sw	a5,24(a4)
    80002f3e:	003fd797          	auipc	a5,0x3fd
    80002f42:	3407a923          	sw	zero,850(a5) # 0x80400290
    80002f46:	003fd797          	auipc	a5,0x3fd
    80002f4a:	3407a723          	sw	zero,846(a5) # 0x80400294
    80002f4e:	8082                	ret
    80002f50:	1141                	addi	sp,sp,-16
    80002f52:	e406                	sd	ra,8(sp)
    80002f54:	00000097          	auipc	ra,0x0
    80002f58:	37a080e7          	jalr	890(ra) # 0x800032ce
    80002f5c:	00000097          	auipc	ra,0x0
    80002f60:	00e080e7          	jalr	14(ra) # 0x80002f6a
    80002f64:	60a2                	ld	ra,8(sp)
    80002f66:	0141                	addi	sp,sp,16
    80002f68:	8082                	ret
    80002f6a:	715d                	addi	sp,sp,-80
    80002f6c:	e486                	sd	ra,72(sp)
    80002f6e:	e0a2                	sd	s0,64(sp)
    80002f70:	100027f3          	csrr	a5,sstatus
    80002f74:	8b89                	andi	a5,a5,2
    80002f76:	eb95                	bnez	a5,0x80002faa
    80002f78:	00001797          	auipc	a5,0x1
    80002f7c:	d4678793          	addi	a5,a5,-698 # 0x80003cbe
    80002f80:	003fd717          	auipc	a4,0x3fd
    80002f84:	42f73423          	sd	a5,1064(a4) # 0x804003a8
    80002f88:	0200c7b7          	lui	a5,0x200c
    80002f8c:	ff87a783          	lw	a5,-8(a5) # 0x200bff8
    80002f90:	3e87879b          	addiw	a5,a5,1000
    80002f94:	02004737          	lui	a4,0x2004
    80002f98:	c31c                	sw	a5,0(a4)
    80002f9a:	22200793          	li	a5,546
    80002f9e:	10479073          	csrw	sie,a5
    80002fa2:	60a6                	ld	ra,72(sp)
    80002fa4:	6406                	ld	s0,64(sp)
    80002fa6:	6161                	addi	sp,sp,80
    80002fa8:	8082                	ret
    80002faa:	003fd417          	auipc	s0,0x3fd
    80002fae:	2a640413          	addi	s0,s0,678 # 0x80400250
    80002fb2:	00040223          	sb	zero,4(s0)
    80002fb6:	fffff097          	auipc	ra,0xfffff
    80002fba:	bee080e7          	jalr	-1042(ra) # 0x80001ba4
    80002fbe:	4785                	li	a5,1
    80002fc0:	00f40223          	sb	a5,4(s0)
    80002fc4:	00001517          	auipc	a0,0x1
    80002fc8:	28450513          	addi	a0,a0,644 # 0x80004248
    80002fcc:	fffff097          	auipc	ra,0xfffff
    80002fd0:	b40080e7          	jalr	-1216(ra) # 0x80001b0c
    80002fd4:	00001517          	auipc	a0,0x1
    80002fd8:	56450513          	addi	a0,a0,1380 # 0x80004538
    80002fdc:	fffff097          	auipc	ra,0xfffff
    80002fe0:	b30080e7          	jalr	-1232(ra) # 0x80001b0c
    80002fe4:	00001517          	auipc	a0,0x1
    80002fe8:	28450513          	addi	a0,a0,644 # 0x80004268
    80002fec:	fffff097          	auipc	ra,0xfffff
    80002ff0:	b20080e7          	jalr	-1248(ra) # 0x80001b0c
    80002ff4:	00001517          	auipc	a0,0x1
    80002ff8:	55c50513          	addi	a0,a0,1372 # 0x80004550
    80002ffc:	fffff097          	auipc	ra,0xfffff
    80003000:	b10080e7          	jalr	-1264(ra) # 0x80001b0c
    80003004:	00001517          	auipc	a0,0x1
    80003008:	2b450513          	addi	a0,a0,692 # 0x800042b8
    8000300c:	fffff097          	auipc	ra,0xfffff
    80003010:	b00080e7          	jalr	-1280(ra) # 0x80001b0c
    80003014:	00001517          	auipc	a0,0x1
    80003018:	56450513          	addi	a0,a0,1380 # 0x80004578
    8000301c:	fffff097          	auipc	ra,0xfffff
    80003020:	af0080e7          	jalr	-1296(ra) # 0x80001b0c
    80003024:	00001517          	auipc	a0,0x1
    80003028:	2e450513          	addi	a0,a0,740 # 0x80004308
    8000302c:	fffff097          	auipc	ra,0xfffff
    80003030:	ae0080e7          	jalr	-1312(ra) # 0x80001b0c
    80003034:	4681                	li	a3,0
    80003036:	860a                	mv	a2,sp
    80003038:	45b5                	li	a1,13
    8000303a:	8522                	mv	a0,s0
    8000303c:	fffff097          	auipc	ra,0xfffff
    80003040:	d74080e7          	jalr	-652(ra) # 0x80001db0
    80003044:	04050793          	addi	a5,a0,64
    80003048:	00278533          	add	a0,a5,sp
    8000304c:	fc050023          	sb	zero,-64(a0)
    80003050:	850a                	mv	a0,sp
    80003052:	fffff097          	auipc	ra,0xfffff
    80003056:	aba080e7          	jalr	-1350(ra) # 0x80001b0c
    8000305a:	00444503          	lbu	a0,4(s0)
    8000305e:	fffff097          	auipc	ra,0xfffff
    80003062:	b48080e7          	jalr	-1208(ra) # 0x80001ba6
    80003066:	00001517          	auipc	a0,0x1
    8000306a:	eea50513          	addi	a0,a0,-278 # 0x80003f50
    8000306e:	fffff097          	auipc	ra,0xfffff
    80003072:	a9e080e7          	jalr	-1378(ra) # 0x80001b0c
    80003076:	47a9                	li	a5,10
    80003078:	c01c                	sw	a5,0(s0)
    8000307a:	bdfd                	j	0x80002f78
    8000307c:	1141                	addi	sp,sp,-16
    8000307e:	e406                	sd	ra,8(sp)
    80003080:	00000097          	auipc	ra,0x0
    80003084:	3c6080e7          	jalr	966(ra) # 0x80003446
    80003088:	00000097          	auipc	ra,0x0
    8000308c:	0ca080e7          	jalr	202(ra) # 0x80003152
    80003090:	60a2                	ld	ra,8(sp)
    80003092:	0141                	addi	sp,sp,16
    80003094:	8082                	ret
    80003096:	cdd1                	beqz	a1,0x80003132
    80003098:	0075f793          	andi	a5,a1,7
    8000309c:	c789                	beqz	a5,0x800030a6
    8000309e:	0585                	addi	a1,a1,1
    800030a0:	0075f793          	andi	a5,a1,7
    800030a4:	ffed                	bnez	a5,0x8000309e
    800030a6:	05a1                	addi	a1,a1,8
    800030a8:	02000793          	li	a5,32
    800030ac:	00f5f463          	bgeu	a1,a5,0x800030b4
    800030b0:	02000593          	li	a1,32
    800030b4:	651c                	ld	a5,8(a0)
    800030b6:	cb91                	beqz	a5,0x800030ca
    800030b8:	02058693          	addi	a3,a1,32
    800030bc:	6798                	ld	a4,8(a5)
    800030be:	06d77c63          	bgeu	a4,a3,0x80003136
    800030c2:	06e58a63          	beq	a1,a4,0x80003136
    800030c6:	6f9c                	ld	a5,24(a5)
    800030c8:	fbf5                	bnez	a5,0x800030bc
    800030ca:	1141                	addi	sp,sp,-16
    800030cc:	e406                	sd	ra,8(sp)
    800030ce:	fffff097          	auipc	ra,0xfffff
    800030d2:	c0a080e7          	jalr	-1014(ra) # 0x80001cd8
    800030d6:	4501                	li	a0,0
    800030d8:	60a2                	ld	ra,8(sp)
    800030da:	0141                	addi	sp,sp,16
    800030dc:	8082                	ret
    800030de:	6118                	ld	a4,0(a0)
    800030e0:	4685                	li	a3,1
    800030e2:	00d70d63          	beq	a4,a3,0x800030fc
    800030e6:	6b90                	ld	a2,16(a5)
    800030e8:	c20d                	beqz	a2,0x8000310a
    800030ea:	6f94                	ld	a3,24(a5)
    800030ec:	ca8d                	beqz	a3,0x8000311e
    800030ee:	ee14                	sd	a3,24(a2)
    800030f0:	6b98                	ld	a4,16(a5)
    800030f2:	ea98                	sd	a4,16(a3)
    800030f4:	6118                	ld	a4,0(a0)
    800030f6:	177d                	addi	a4,a4,-1 # 0x2003fff
    800030f8:	e118                	sd	a4,0(a0)
    800030fa:	a0a9                	j	0x80003144
    800030fc:	00053423          	sd	zero,8(a0)
    80003100:	00053823          	sd	zero,16(a0)
    80003104:	00053023          	sd	zero,0(a0)
    80003108:	a835                	j	0x80003144
    8000310a:	cf0d                	beqz	a4,0x80003144
    8000310c:	6518                	ld	a4,8(a0)
    8000310e:	6f18                	ld	a4,24(a4)
    80003110:	e518                	sd	a4,8(a0)
    80003112:	00073823          	sd	zero,16(a4)
    80003116:	6118                	ld	a4,0(a0)
    80003118:	177d                	addi	a4,a4,-1
    8000311a:	e118                	sd	a4,0(a0)
    8000311c:	a025                	j	0x80003144
    8000311e:	c31d                	beqz	a4,0x80003144
    80003120:	6918                	ld	a4,16(a0)
    80003122:	6b18                	ld	a4,16(a4)
    80003124:	e918                	sd	a4,16(a0)
    80003126:	00073c23          	sd	zero,24(a4)
    8000312a:	6118                	ld	a4,0(a0)
    8000312c:	177d                	addi	a4,a4,-1
    8000312e:	e118                	sd	a4,0(a0)
    80003130:	a811                	j	0x80003144
    80003132:	4501                	li	a0,0
    80003134:	8082                	ret
    80003136:	8f0d                	sub	a4,a4,a1
    80003138:	e798                	sd	a4,8(a5)
    8000313a:	6d18                	ld	a4,24(a0)
    8000313c:	8f0d                	sub	a4,a4,a1
    8000313e:	ed18                	sd	a4,24(a0)
    80003140:	6798                	ld	a4,8(a5)
    80003142:	df51                	beqz	a4,0x800030de
    80003144:	6398                	ld	a4,0(a5)
    80003146:	679c                	ld	a5,8(a5)
    80003148:	97ba                	add	a5,a5,a4
    8000314a:	00878513          	addi	a0,a5,8
    8000314e:	e38c                	sd	a1,0(a5)
    80003150:	8082                	ret
    80003152:	7175                	addi	sp,sp,-144
    80003154:	e506                	sd	ra,136(sp)
    80003156:	e122                	sd	s0,128(sp)
    80003158:	fca6                	sd	s1,120(sp)
    8000315a:	f8ca                	sd	s2,112(sp)
    8000315c:	f4ce                	sd	s3,104(sp)
    8000315e:	f0d2                	sd	s4,96(sp)
    80003160:	ecd6                	sd	s5,88(sp)
    80003162:	d402                	sw	zero,40(sp)
    80003164:	7782                	ld	a5,32(sp)
    80003166:	e43e                	sd	a5,8(sp)
    80003168:	77a2                	ld	a5,40(sp)
    8000316a:	e83e                	sd	a5,16(sp)
    8000316c:	003fd917          	auipc	s2,0x3fd
    80003170:	0f490913          	addi	s2,s2,244 # 0x80400260
    80003174:	05000593          	li	a1,80
    80003178:	00093503          	ld	a0,0(s2)
    8000317c:	00000097          	auipc	ra,0x0
    80003180:	f1a080e7          	jalr	-230(ra) # 0x80003096
    80003184:	842a                	mv	s0,a0
    80003186:	00052823          	sw	zero,16(a0)
    8000318a:	00053c23          	sd	zero,24(a0)
    8000318e:	02053023          	sd	zero,32(a0)
    80003192:	f508                	sd	a0,40(a0)
    80003194:	67a2                	ld	a5,8(sp)
    80003196:	f91c                	sd	a5,48(a0)
    80003198:	67c2                	ld	a5,16(sp)
    8000319a:	fd1c                	sd	a5,56(a0)
    8000319c:	04053023          	sd	zero,64(a0)
    800031a0:	04053423          	sd	zero,72(a0)
    800031a4:	65c1                	lui	a1,0x10
    800031a6:	fffff097          	auipc	ra,0xfffff
    800031aa:	2d8080e7          	jalr	728(ra) # 0x8000247e
    800031ae:	ffffe697          	auipc	a3,0xffffe
    800031b2:	d5268693          	addi	a3,a3,-686 # 0x80000f00
    800031b6:	fffff997          	auipc	s3,0xfffff
    800031ba:	94498993          	addi	s3,s3,-1724 # 0x80001afa
    800031be:	6a41                	lui	s4,0x10
    800031c0:	601c                	ld	a5,0(s0)
    800031c2:	97d2                	add	a5,a5,s4
    800031c4:	f1078713          	addi	a4,a5,-240
    800031c8:	f0d7b823          	sd	a3,-240(a5)
    800031cc:	6489                	lui	s1,0x2
    800031ce:	88048493          	addi	s1,s1,-1920 # 0x1880
    800031d2:	f097bc23          	sd	s1,-232(a5)
    800031d6:	f337b023          	sd	s3,-224(a5)
    800031da:	e418                	sd	a4,8(s0)
    800031dc:	e4b6                	sd	a3,72(sp)
    800031de:	6641                	lui	a2,0x10
    800031e0:	00ac                	addi	a1,sp,72
    800031e2:	8522                	mv	a0,s0
    800031e4:	fffff097          	auipc	ra,0xfffff
    800031e8:	62c080e7          	jalr	1580(ra) # 0x80002810
    800031ec:	800007b7          	lui	a5,0x80000
    800031f0:	fff7c793          	not	a5,a5
    800031f4:	dc3e                	sw	a5,56(sp)
    800031f6:	77c2                	ld	a5,48(sp)
    800031f8:	e43e                	sd	a5,8(sp)
    800031fa:	77e2                	ld	a5,56(sp)
    800031fc:	e83e                	sd	a5,16(sp)
    800031fe:	05000593          	li	a1,80
    80003202:	00093503          	ld	a0,0(s2)
    80003206:	00000097          	auipc	ra,0x0
    8000320a:	e90080e7          	jalr	-368(ra) # 0x80003096
    8000320e:	842a                	mv	s0,a0
    80003210:	4a85                	li	s5,1
    80003212:	01552823          	sw	s5,16(a0)
    80003216:	00053c23          	sd	zero,24(a0)
    8000321a:	02053023          	sd	zero,32(a0)
    8000321e:	f508                	sd	a0,40(a0)
    80003220:	67a2                	ld	a5,8(sp)
    80003222:	f91c                	sd	a5,48(a0)
    80003224:	67c2                	ld	a5,16(sp)
    80003226:	fd1c                	sd	a5,56(a0)
    80003228:	04053023          	sd	zero,64(a0)
    8000322c:	04053423          	sd	zero,72(a0)
    80003230:	65c1                	lui	a1,0x10
    80003232:	fffff097          	auipc	ra,0xfffff
    80003236:	24c080e7          	jalr	588(ra) # 0x8000247e
    8000323a:	00000697          	auipc	a3,0x0
    8000323e:	a6a68693          	addi	a3,a3,-1430 # 0x80002ca4
    80003242:	601c                	ld	a5,0(s0)
    80003244:	97d2                	add	a5,a5,s4
    80003246:	f1078713          	addi	a4,a5,-240 # 0xffffffff7fffff10
    8000324a:	f0d7b823          	sd	a3,-240(a5)
    8000324e:	f097bc23          	sd	s1,-232(a5)
    80003252:	f337b023          	sd	s3,-224(a5)
    80003256:	e418                	sd	a4,8(s0)
    80003258:	e0b6                	sd	a3,64(sp)
    8000325a:	6641                	lui	a2,0x10
    8000325c:	008c                	addi	a1,sp,64
    8000325e:	8522                	mv	a0,s0
    80003260:	fffff097          	auipc	ra,0xfffff
    80003264:	5b0080e7          	jalr	1456(ra) # 0x80002810
    80003268:	02800593          	li	a1,40
    8000326c:	00093503          	ld	a0,0(s2)
    80003270:	00000097          	auipc	ra,0x0
    80003274:	e26080e7          	jalr	-474(ra) # 0x80003096
    80003278:	00052023          	sw	zero,0(a0)
    8000327c:	47a9                	li	a5,10
    8000327e:	e51c                	sd	a5,8(a0)
    80003280:	01550823          	sb	s5,16(a0)
    80003284:	fffff797          	auipc	a5,0xfffff
    80003288:	57278793          	addi	a5,a5,1394 # 0x800027f6
    8000328c:	f11c                	sd	a5,32(a0)
    8000328e:	003fd797          	auipc	a5,0x3fd
    80003292:	1727b783          	ld	a5,370(a5) # 0x80400400
    80003296:	c79d                	beqz	a5,0x800032c4
    80003298:	47a9                	li	a5,10
    8000329a:	ed1c                	sd	a5,24(a0)
    8000329c:	003fd797          	auipc	a5,0x3fd
    800032a0:	fca7be23          	sd	a0,-36(a5) # 0x80400278
    800032a4:	10017073          	csrci	sstatus,2
    800032a8:	4785                	li	a5,1
    800032aa:	003fd717          	auipc	a4,0x3fd
    800032ae:	fcf70123          	sb	a5,-62(a4) # 0x8040026c
    800032b2:	60aa                	ld	ra,136(sp)
    800032b4:	640a                	ld	s0,128(sp)
    800032b6:	74e6                	ld	s1,120(sp)
    800032b8:	7946                	ld	s2,112(sp)
    800032ba:	79a6                	ld	s3,104(sp)
    800032bc:	7a06                	ld	s4,96(sp)
    800032be:	6ae6                	ld	s5,88(sp)
    800032c0:	6149                	addi	sp,sp,144
    800032c2:	8082                	ret
    800032c4:	003fd797          	auipc	a5,0x3fd
    800032c8:	12a7be23          	sd	a0,316(a5) # 0x80400400
    800032cc:	b7f1                	j	0x80003298
    800032ce:	100027f3          	csrr	a5,sstatus
    800032d2:	8b89                	andi	a5,a5,2
    800032d4:	e7b1                	bnez	a5,0x80003320
    800032d6:	22200793          	li	a5,546
    800032da:	1047b073          	csrc	sie,a5
    800032de:	003fd697          	auipc	a3,0x3fd
    800032e2:	0a268693          	addi	a3,a3,162 # 0x80400380
    800032e6:	003fd797          	auipc	a5,0x3fd
    800032ea:	01a78793          	addi	a5,a5,26 # 0x80400300
    800032ee:	00000717          	auipc	a4,0x0
    800032f2:	50c70713          	addi	a4,a4,1292 # 0x800037fa
    800032f6:	e398                	sd	a4,0(a5)
    800032f8:	07a1                	addi	a5,a5,8
    800032fa:	fed79ee3          	bne	a5,a3,0x800032f6
    800032fe:	003fd797          	auipc	a5,0x3fd
    80003302:	08278793          	addi	a5,a5,130 # 0x80400380
    80003306:	003fd697          	auipc	a3,0x3fd
    8000330a:	0fa68693          	addi	a3,a3,250 # 0x80400400
    8000330e:	00000717          	auipc	a4,0x0
    80003312:	4ea70713          	addi	a4,a4,1258 # 0x800037f8
    80003316:	e398                	sd	a4,0(a5)
    80003318:	07a1                	addi	a5,a5,8
    8000331a:	fed79ee3          	bne	a5,a3,0x80003316
    8000331e:	8082                	ret
    80003320:	715d                	addi	sp,sp,-80
    80003322:	e486                	sd	ra,72(sp)
    80003324:	e0a2                	sd	s0,64(sp)
    80003326:	003fd417          	auipc	s0,0x3fd
    8000332a:	f2a40413          	addi	s0,s0,-214 # 0x80400250
    8000332e:	00040223          	sb	zero,4(s0)
    80003332:	fffff097          	auipc	ra,0xfffff
    80003336:	872080e7          	jalr	-1934(ra) # 0x80001ba4
    8000333a:	4785                	li	a5,1
    8000333c:	00f40223          	sb	a5,4(s0)
    80003340:	00001517          	auipc	a0,0x1
    80003344:	f0850513          	addi	a0,a0,-248 # 0x80004248
    80003348:	ffffe097          	auipc	ra,0xffffe
    8000334c:	7c4080e7          	jalr	1988(ra) # 0x80001b0c
    80003350:	00001517          	auipc	a0,0x1
    80003354:	1e850513          	addi	a0,a0,488 # 0x80004538
    80003358:	ffffe097          	auipc	ra,0xffffe
    8000335c:	7b4080e7          	jalr	1972(ra) # 0x80001b0c
    80003360:	00001517          	auipc	a0,0x1
    80003364:	f0850513          	addi	a0,a0,-248 # 0x80004268
    80003368:	ffffe097          	auipc	ra,0xffffe
    8000336c:	7a4080e7          	jalr	1956(ra) # 0x80001b0c
    80003370:	00001517          	auipc	a0,0x1
    80003374:	22050513          	addi	a0,a0,544 # 0x80004590
    80003378:	ffffe097          	auipc	ra,0xffffe
    8000337c:	794080e7          	jalr	1940(ra) # 0x80001b0c
    80003380:	00001517          	auipc	a0,0x1
    80003384:	f3850513          	addi	a0,a0,-200 # 0x800042b8
    80003388:	ffffe097          	auipc	ra,0xffffe
    8000338c:	784080e7          	jalr	1924(ra) # 0x80001b0c
    80003390:	00001517          	auipc	a0,0x1
    80003394:	22050513          	addi	a0,a0,544 # 0x800045b0
    80003398:	ffffe097          	auipc	ra,0xffffe
    8000339c:	774080e7          	jalr	1908(ra) # 0x80001b0c
    800033a0:	00001517          	auipc	a0,0x1
    800033a4:	f6850513          	addi	a0,a0,-152 # 0x80004308
    800033a8:	ffffe097          	auipc	ra,0xffffe
    800033ac:	764080e7          	jalr	1892(ra) # 0x80001b0c
    800033b0:	4681                	li	a3,0
    800033b2:	860a                	mv	a2,sp
    800033b4:	45b5                	li	a1,13
    800033b6:	8522                	mv	a0,s0
    800033b8:	fffff097          	auipc	ra,0xfffff
    800033bc:	9f8080e7          	jalr	-1544(ra) # 0x80001db0
    800033c0:	04050793          	addi	a5,a0,64
    800033c4:	00278533          	add	a0,a5,sp
    800033c8:	fc050023          	sb	zero,-64(a0)
    800033cc:	850a                	mv	a0,sp
    800033ce:	ffffe097          	auipc	ra,0xffffe
    800033d2:	73e080e7          	jalr	1854(ra) # 0x80001b0c
    800033d6:	00444503          	lbu	a0,4(s0)
    800033da:	ffffe097          	auipc	ra,0xffffe
    800033de:	7cc080e7          	jalr	1996(ra) # 0x80001ba6
    800033e2:	00001517          	auipc	a0,0x1
    800033e6:	b6e50513          	addi	a0,a0,-1170 # 0x80003f50
    800033ea:	ffffe097          	auipc	ra,0xffffe
    800033ee:	722080e7          	jalr	1826(ra) # 0x80001b0c
    800033f2:	47a9                	li	a5,10
    800033f4:	c01c                	sw	a5,0(s0)
    800033f6:	22200793          	li	a5,546
    800033fa:	1047b073          	csrc	sie,a5
    800033fe:	003fd697          	auipc	a3,0x3fd
    80003402:	f8268693          	addi	a3,a3,-126 # 0x80400380
    80003406:	003fd797          	auipc	a5,0x3fd
    8000340a:	efa78793          	addi	a5,a5,-262 # 0x80400300
    8000340e:	00000717          	auipc	a4,0x0
    80003412:	3ec70713          	addi	a4,a4,1004 # 0x800037fa
    80003416:	e398                	sd	a4,0(a5)
    80003418:	07a1                	addi	a5,a5,8
    8000341a:	fed79ee3          	bne	a5,a3,0x80003416
    8000341e:	003fd797          	auipc	a5,0x3fd
    80003422:	f6278793          	addi	a5,a5,-158 # 0x80400380
    80003426:	003fd697          	auipc	a3,0x3fd
    8000342a:	fda68693          	addi	a3,a3,-38 # 0x80400400
    8000342e:	00000717          	auipc	a4,0x0
    80003432:	3ca70713          	addi	a4,a4,970 # 0x800037f8
    80003436:	e398                	sd	a4,0(a5)
    80003438:	07a1                	addi	a5,a5,8
    8000343a:	fed79ee3          	bne	a5,a3,0x80003436
    8000343e:	60a6                	ld	ra,72(sp)
    80003440:	6406                	ld	s0,64(sp)
    80003442:	6161                	addi	sp,sp,80
    80003444:	8082                	ret
    80003446:	1141                	addi	sp,sp,-16
    80003448:	e406                	sd	ra,8(sp)
    8000344a:	003fd517          	auipc	a0,0x3fd
    8000344e:	e1653503          	ld	a0,-490(a0) # 0x80400260
    80003452:	651c                	ld	a5,8(a0)
    80003454:	cf81                	beqz	a5,0x8000346c
    80003456:	04f00693          	li	a3,79
    8000345a:	03000613          	li	a2,48
    8000345e:	6798                	ld	a4,8(a5)
    80003460:	06e6ed63          	bltu	a3,a4,0x800034da
    80003464:	06c70b63          	beq	a4,a2,0x800034da
    80003468:	6f9c                	ld	a5,24(a5)
    8000346a:	fbf5                	bnez	a5,0x8000345e
    8000346c:	03000593          	li	a1,48
    80003470:	fffff097          	auipc	ra,0xfffff
    80003474:	868080e7          	jalr	-1944(ra) # 0x80001cd8
    80003478:	4781                	li	a5,0
    8000347a:	a049                	j	0x800034fc
    8000347c:	6118                	ld	a4,0(a0)
    8000347e:	4685                	li	a3,1
    80003480:	00d70d63          	beq	a4,a3,0x8000349a
    80003484:	6b90                	ld	a2,16(a5)
    80003486:	c20d                	beqz	a2,0x800034a8
    80003488:	6f94                	ld	a3,24(a5)
    8000348a:	ca8d                	beqz	a3,0x800034bc
    8000348c:	ee14                	sd	a3,24(a2)
    8000348e:	6b98                	ld	a4,16(a5)
    80003490:	ea98                	sd	a4,16(a3)
    80003492:	6118                	ld	a4,0(a0)
    80003494:	177d                	addi	a4,a4,-1
    80003496:	e118                	sd	a4,0(a0)
    80003498:	a891                	j	0x800034ec
    8000349a:	00053423          	sd	zero,8(a0)
    8000349e:	00053823          	sd	zero,16(a0)
    800034a2:	00053023          	sd	zero,0(a0)
    800034a6:	a099                	j	0x800034ec
    800034a8:	c331                	beqz	a4,0x800034ec
    800034aa:	6518                	ld	a4,8(a0)
    800034ac:	6f18                	ld	a4,24(a4)
    800034ae:	e518                	sd	a4,8(a0)
    800034b0:	00073823          	sd	zero,16(a4)
    800034b4:	6118                	ld	a4,0(a0)
    800034b6:	177d                	addi	a4,a4,-1
    800034b8:	e118                	sd	a4,0(a0)
    800034ba:	a80d                	j	0x800034ec
    800034bc:	cb05                	beqz	a4,0x800034ec
    800034be:	6918                	ld	a4,16(a0)
    800034c0:	6b18                	ld	a4,16(a4)
    800034c2:	e918                	sd	a4,16(a0)
    800034c4:	00073c23          	sd	zero,24(a4)
    800034c8:	6118                	ld	a4,0(a0)
    800034ca:	177d                	addi	a4,a4,-1
    800034cc:	e118                	sd	a4,0(a0)
    800034ce:	a839                	j	0x800034ec
    800034d0:	003fd717          	auipc	a4,0x3fd
    800034d4:	f2f73c23          	sd	a5,-200(a4) # 0x80400408
    800034d8:	a089                	j	0x8000351a
    800034da:	fd070713          	addi	a4,a4,-48
    800034de:	e798                	sd	a4,8(a5)
    800034e0:	6d18                	ld	a4,24(a0)
    800034e2:	fd070713          	addi	a4,a4,-48
    800034e6:	ed18                	sd	a4,24(a0)
    800034e8:	6798                	ld	a4,8(a5)
    800034ea:	db49                	beqz	a4,0x8000347c
    800034ec:	6398                	ld	a4,0(a5)
    800034ee:	679c                	ld	a5,8(a5)
    800034f0:	973e                	add	a4,a4,a5
    800034f2:	00870793          	addi	a5,a4,8
    800034f6:	03000693          	li	a3,48
    800034fa:	e314                	sd	a3,0(a4)
    800034fc:	4705                	li	a4,1
    800034fe:	c398                	sw	a4,0(a5)
    80003500:	e798                	sd	a4,8(a5)
    80003502:	00e78823          	sb	a4,16(a5)
    80003506:	00000717          	auipc	a4,0x0
    8000350a:	02670713          	addi	a4,a4,38 # 0x8000352c
    8000350e:	f398                	sd	a4,32(a5)
    80003510:	003fd717          	auipc	a4,0x3fd
    80003514:	ef873703          	ld	a4,-264(a4) # 0x80400408
    80003518:	df45                	beqz	a4,0x800034d0
    8000351a:	4705                	li	a4,1
    8000351c:	ef98                	sd	a4,24(a5)
    8000351e:	003fd717          	auipc	a4,0x3fd
    80003522:	d6f73123          	sd	a5,-670(a4) # 0x80400280
    80003526:	60a2                	ld	ra,8(sp)
    80003528:	0141                	addi	sp,sp,16
    8000352a:	8082                	ret
    8000352c:	10017073          	csrci	sstatus,2
    80003530:	003fd717          	auipc	a4,0x3fd
    80003534:	d5870713          	addi	a4,a4,-680 # 0x80400288
    80003538:	631c                	ld	a5,0(a4)
    8000353a:	0785                	addi	a5,a5,1
    8000353c:	e31c                	sd	a5,0(a4)
    8000353e:	003fd717          	auipc	a4,0x3fd
    80003542:	daa73703          	ld	a4,-598(a4) # 0x804002e8
    80003546:	e701                	bnez	a4,0x8000354e
    80003548:	10016073          	csrsi	sstatus,2
    8000354c:	8082                	ret
    8000354e:	003fd697          	auipc	a3,0x3fd
    80003552:	da26b683          	ld	a3,-606(a3) # 0x804002f0
    80003556:	669c                	ld	a5,8(a3)
    80003558:	17fd                	addi	a5,a5,-1
    8000355a:	e69c                	sd	a5,8(a3)
    8000355c:	2781                	sext.w	a5,a5
    8000355e:	00f05563          	blez	a5,0x80003568
    80003562:	10016073          	csrsi	sstatus,2
    80003566:	8082                	ret
    80003568:	1141                	addi	sp,sp,-16
    8000356a:	e406                	sd	ra,8(sp)
    8000356c:	003fd697          	auipc	a3,0x3fd
    80003570:	d846b683          	ld	a3,-636(a3) # 0x804002f0
    80003574:	4785                	li	a5,1
    80003576:	04f70563          	beq	a4,a5,0x800035c0
    8000357a:	6e90                	ld	a2,24(a3)
    8000357c:	003fd797          	auipc	a5,0x3fd
    80003580:	d6c78793          	addi	a5,a5,-660 # 0x804002e8
    80003584:	e790                	sd	a2,8(a5)
    80003586:	00063823          	sd	zero,16(a2) # 0x10010
    8000358a:	177d                	addi	a4,a4,-1
    8000358c:	e398                	sd	a4,0(a5)
    8000358e:	6e9c                	ld	a5,24(a3)
    80003590:	c789                	beqz	a5,0x8000359a
    80003592:	6798                	ld	a4,8(a5)
    80003594:	6690                	ld	a2,8(a3)
    80003596:	9732                	add	a4,a4,a2
    80003598:	e798                	sd	a4,8(a5)
    8000359a:	628c                	ld	a1,0(a3)
    8000359c:	499c                	lw	a5,16(a1)
    8000359e:	577d                	li	a4,-1
    800035a0:	02e78c63          	beq	a5,a4,0x800035d8
    800035a4:	37fd                	addiw	a5,a5,-1
    800035a6:	0007871b          	sext.w	a4,a5
    800035aa:	c99c                	sw	a5,16(a1)
    800035ac:	e715                	bnez	a4,0x800035d8
    800035ae:	10016073          	csrsi	sstatus,2
    800035b2:	6588                	ld	a0,8(a1)
    800035b4:	611c                	ld	a5,0(a0)
    800035b6:	6b9c                	ld	a5,16(a5)
    800035b8:	9782                	jalr	a5
    800035ba:	60a2                	ld	ra,8(sp)
    800035bc:	0141                	addi	sp,sp,16
    800035be:	8082                	ret
    800035c0:	003fd797          	auipc	a5,0x3fd
    800035c4:	d2878793          	addi	a5,a5,-728 # 0x804002e8
    800035c8:	0007b423          	sd	zero,8(a5)
    800035cc:	0007b823          	sd	zero,16(a5)
    800035d0:	0007b023          	sd	zero,0(a5)
    800035d4:	d2f9                	beqz	a3,0x8000359a
    800035d6:	bf65                	j	0x8000358e
    800035d8:	6d9c                	ld	a5,24(a1)
    800035da:	e69c                	sd	a5,8(a3)
    800035dc:	003fd817          	auipc	a6,0x3fd
    800035e0:	d0c83803          	ld	a6,-756(a6) # 0x804002e8
    800035e4:	00081f63          	bnez	a6,0x80003602
    800035e8:	0006b823          	sd	zero,16(a3)
    800035ec:	0006bc23          	sd	zero,24(a3)
    800035f0:	003fd797          	auipc	a5,0x3fd
    800035f4:	cf878793          	addi	a5,a5,-776 # 0x804002e8
    800035f8:	e794                	sd	a3,8(a5)
    800035fa:	eb94                	sd	a3,16(a5)
    800035fc:	4705                	li	a4,1
    800035fe:	e398                	sd	a4,0(a5)
    80003600:	b77d                	j	0x800035ae
    80003602:	003fd717          	auipc	a4,0x3fd
    80003606:	cee73703          	ld	a4,-786(a4) # 0x804002f0
    8000360a:	6710                	ld	a2,8(a4)
    8000360c:	669c                	ld	a5,8(a3)
    8000360e:	00c7ca63          	blt	a5,a2,0x80003622
    80003612:	6f08                	ld	a0,24(a4)
    80003614:	c50d                	beqz	a0,0x8000363e
    80003616:	8f91                	sub	a5,a5,a2
    80003618:	e69c                	sd	a5,8(a3)
    8000361a:	6f18                	ld	a4,24(a4)
    8000361c:	6710                	ld	a2,8(a4)
    8000361e:	fec7dae3          	bge	a5,a2,0x80003612
    80003622:	6b08                	ld	a0,16(a4)
    80003624:	cd1d                	beqz	a0,0x80003662
    80003626:	8e1d                	sub	a2,a2,a5
    80003628:	e710                	sd	a2,8(a4)
    8000362a:	ed14                	sd	a3,24(a0)
    8000362c:	eb14                	sd	a3,16(a4)
    8000362e:	ea88                	sd	a0,16(a3)
    80003630:	ee98                	sd	a4,24(a3)
    80003632:	0805                	addi	a6,a6,1
    80003634:	003fd797          	auipc	a5,0x3fd
    80003638:	cb07ba23          	sd	a6,-844(a5) # 0x804002e8
    8000363c:	bf8d                	j	0x800035ae
    8000363e:	fec7c2e3          	blt	a5,a2,0x80003622
    80003642:	8f91                	sub	a5,a5,a2
    80003644:	e69c                	sd	a5,8(a3)
    80003646:	003fd797          	auipc	a5,0x3fd
    8000364a:	ca278793          	addi	a5,a5,-862 # 0x804002e8
    8000364e:	6b98                	ld	a4,16(a5)
    80003650:	ef14                	sd	a3,24(a4)
    80003652:	ea98                	sd	a4,16(a3)
    80003654:	0006bc23          	sd	zero,24(a3)
    80003658:	eb94                	sd	a3,16(a5)
    8000365a:	0805                	addi	a6,a6,1
    8000365c:	0107b023          	sd	a6,0(a5)
    80003660:	b7b9                	j	0x800035ae
    80003662:	8e1d                	sub	a2,a2,a5
    80003664:	e710                	sd	a2,8(a4)
    80003666:	0006b823          	sd	zero,16(a3)
    8000366a:	003fd797          	auipc	a5,0x3fd
    8000366e:	c7e78793          	addi	a5,a5,-898 # 0x804002e8
    80003672:	6798                	ld	a4,8(a5)
    80003674:	ee98                	sd	a4,24(a3)
    80003676:	eb14                	sd	a3,16(a4)
    80003678:	e794                	sd	a3,8(a5)
    8000367a:	0805                	addi	a6,a6,1
    8000367c:	0107b023          	sd	a6,0(a5)
    80003680:	b73d                	j	0x800035ae
    80003682:	003fd797          	auipc	a5,0x3fd
    80003686:	c6678793          	addi	a5,a5,-922 # 0x804002e8
    8000368a:	0007b023          	sd	zero,0(a5)
    8000368e:	0007b423          	sd	zero,8(a5)
    80003692:	0007b823          	sd	zero,16(a5)
    80003696:	8082                	ret
    80003698:	003fd717          	auipc	a4,0x3fd
    8000369c:	b8070713          	addi	a4,a4,-1152 # 0x80400218
    800036a0:	003fd797          	auipc	a5,0x3fd
    800036a4:	db078793          	addi	a5,a5,-592 # 0x80400450
    800036a8:	02f77063          	bgeu	a4,a5,0x800036c8
    800036ac:	87ba                	mv	a5,a4
    800036ae:	003fd717          	auipc	a4,0x3fd
    800036b2:	da170713          	addi	a4,a4,-607 # 0x8040044f
    800036b6:	8f1d                	sub	a4,a4,a5
    800036b8:	9b71                	andi	a4,a4,-4
    800036ba:	0711                	addi	a4,a4,4
    800036bc:	973e                	add	a4,a4,a5
    800036be:	0791                	addi	a5,a5,4
    800036c0:	fe07ae23          	sw	zero,-4(a5)
    800036c4:	fee79de3          	bne	a5,a4,0x800036be
    800036c8:	8082                	ret
    800036ca:	003fd797          	auipc	a5,0x3fd
    800036ce:	bce78793          	addi	a5,a5,-1074 # 0x80400298
    800036d2:	00078023          	sb	zero,0(a5)
    800036d6:	0007a223          	sw	zero,4(a5)
    800036da:	10010737          	lui	a4,0x10010
    800036de:	67c1                	lui	a5,0x10
    800036e0:	0785                	addi	a5,a5,1 # 0x10001
    800036e2:	c71c                	sw	a5,8(a4)
    800036e4:	c75c                	sw	a5,12(a4)
    800036e6:	6785                	lui	a5,0x1
    800036e8:	0f378793          	addi	a5,a5,243 # 0x10f3
    800036ec:	cf1c                	sw	a5,24(a4)
    800036ee:	8082                	ret
    800036f0:	1141                	addi	sp,sp,-16
    800036f2:	e406                	sd	ra,8(sp)
    800036f4:	e022                	sd	s0,0(sp)
    800036f6:	142027f3          	csrr	a5,scause
    800036fa:	0007841b          	sext.w	s0,a5
    800036fe:	0007d463          	bgez	a5,0x80003706
    80003702:	0107841b          	addiw	s0,a5,16
    80003706:	47d5                	li	a5,21
    80003708:	02f40563          	beq	s0,a5,0x80003732
    8000370c:	02041793          	slli	a5,s0,0x20
    80003710:	01d7d713          	srli	a4,a5,0x1d
    80003714:	003fd797          	auipc	a5,0x3fd
    80003718:	bec78793          	addi	a5,a5,-1044 # 0x80400300
    8000371c:	97ba                	add	a5,a5,a4
    8000371e:	639c                	ld	a5,0(a5)
    80003720:	8522                	mv	a0,s0
    80003722:	9782                	jalr	a5
    80003724:	47bd                	li	a5,15
    80003726:	0287e563          	bltu	a5,s0,0x80003750
    8000372a:	60a2                	ld	ra,8(sp)
    8000372c:	6402                	ld	s0,0(sp)
    8000372e:	0141                	addi	sp,sp,16
    80003730:	8082                	ret
    80003732:	0200c7b7          	lui	a5,0x200c
    80003736:	ff87a783          	lw	a5,-8(a5) # 0x200bff8
    8000373a:	3e87879b          	addiw	a5,a5,1000
    8000373e:	02004737          	lui	a4,0x2004
    80003742:	c31c                	sw	a5,0(a4)
    80003744:	4555                	li	a0,21
    80003746:	003fd797          	auipc	a5,0x3fd
    8000374a:	c627b783          	ld	a5,-926(a5) # 0x804003a8
    8000374e:	9782                	jalr	a5
    80003750:	4781                	li	a5,0
    80003752:	853e                	mv	a0,a5
    80003754:	bfd9                	j	0x8000372a
    80003756:	0000                	unimp
    80003758:	7151                	addi	sp,sp,-240
    8000375a:	341021f3          	csrr	gp,mepc
    8000375e:	e00e                	sd	gp,0(sp)
    80003760:	300021f3          	csrr	gp,mstatus
    80003764:	e40e                	sd	gp,8(sp)
    80003766:	e806                	sd	ra,16(sp)
    80003768:	ec16                	sd	t0,24(sp)
    8000376a:	f01a                	sd	t1,32(sp)
    8000376c:	f41e                	sd	t2,40(sp)
    8000376e:	f822                	sd	s0,48(sp)
    80003770:	fc26                	sd	s1,56(sp)
    80003772:	e0aa                	sd	a0,64(sp)
    80003774:	e4ae                	sd	a1,72(sp)
    80003776:	e8b2                	sd	a2,80(sp)
    80003778:	ecb6                	sd	a3,88(sp)
    8000377a:	f0ba                	sd	a4,96(sp)
    8000377c:	f4be                	sd	a5,104(sp)
    8000377e:	f8c2                	sd	a6,112(sp)
    80003780:	fcc6                	sd	a7,120(sp)
    80003782:	e14a                	sd	s2,128(sp)
    80003784:	e54e                	sd	s3,136(sp)
    80003786:	e952                	sd	s4,144(sp)
    80003788:	ed56                	sd	s5,152(sp)
    8000378a:	f15a                	sd	s6,160(sp)
    8000378c:	f55e                	sd	s7,168(sp)
    8000378e:	f962                	sd	s8,176(sp)
    80003790:	fd66                	sd	s9,184(sp)
    80003792:	e1ea                	sd	s10,192(sp)
    80003794:	e5ee                	sd	s11,200(sp)
    80003796:	e9f2                	sd	t3,208(sp)
    80003798:	edf6                	sd	t4,216(sp)
    8000379a:	f1fa                	sd	t5,224(sp)
    8000379c:	f5fe                	sd	t6,232(sp)
    8000379e:	00000097          	auipc	ra,0x0
    800037a2:	00c08093          	addi	ra,ra,12 # 0x800037aa
    800037a6:	f4bff06f          	j	0x800036f0
    800037aa:	6182                	ld	gp,0(sp)
    800037ac:	91aa                	add	gp,gp,a0
    800037ae:	34119073          	csrw	mepc,gp
    800037b2:	61a2                	ld	gp,8(sp)
    800037b4:	60c2                	ld	ra,16(sp)
    800037b6:	62e2                	ld	t0,24(sp)
    800037b8:	7302                	ld	t1,32(sp)
    800037ba:	73a2                	ld	t2,40(sp)
    800037bc:	7442                	ld	s0,48(sp)
    800037be:	74e2                	ld	s1,56(sp)
    800037c0:	6506                	ld	a0,64(sp)
    800037c2:	65a6                	ld	a1,72(sp)
    800037c4:	6646                	ld	a2,80(sp)
    800037c6:	66e6                	ld	a3,88(sp)
    800037c8:	7706                	ld	a4,96(sp)
    800037ca:	77a6                	ld	a5,104(sp)
    800037cc:	7846                	ld	a6,112(sp)
    800037ce:	78e6                	ld	a7,120(sp)
    800037d0:	690a                	ld	s2,128(sp)
    800037d2:	69aa                	ld	s3,136(sp)
    800037d4:	6a4a                	ld	s4,144(sp)
    800037d6:	6aea                	ld	s5,152(sp)
    800037d8:	7b0a                	ld	s6,160(sp)
    800037da:	7baa                	ld	s7,168(sp)
    800037dc:	7c4a                	ld	s8,176(sp)
    800037de:	7cea                	ld	s9,184(sp)
    800037e0:	6d0e                	ld	s10,192(sp)
    800037e2:	6dae                	ld	s11,200(sp)
    800037e4:	6e4e                	ld	t3,208(sp)
    800037e6:	6eee                	ld	t4,216(sp)
    800037e8:	7f0e                	ld	t5,224(sp)
    800037ea:	7fae                	ld	t6,232(sp)
    800037ec:	616d                	addi	sp,sp,240
    800037ee:	30019073          	csrw	mstatus,gp
    800037f2:	10200073          	sret
    800037f6:	0001                	nop
    800037f8:	8082                	ret
    800037fa:	7175                	addi	sp,sp,-144
    800037fc:	e506                	sd	ra,136(sp)
    800037fe:	e122                	sd	s0,128(sp)
    80003800:	fca6                	sd	s1,120(sp)
    80003802:	f8ca                	sd	s2,112(sp)
    80003804:	f4ce                	sd	s3,104(sp)
    80003806:	f0d2                	sd	s4,96(sp)
    80003808:	ecd6                	sd	s5,88(sp)
    8000380a:	e8da                	sd	s6,80(sp)
    8000380c:	e4de                	sd	s7,72(sp)
    8000380e:	84aa                	mv	s1,a0
    80003810:	14102b73          	csrr	s6,sepc
    80003814:	8a8a                	mv	s5,sp
    80003816:	10002a73          	csrr	s4,sstatus
    8000381a:	142029f3          	csrr	s3,scause
    8000381e:	14302973          	csrr	s2,stval
    80003822:	003fd797          	auipc	a5,0x3fd
    80003826:	abe7b783          	ld	a5,-1346(a5) # 0x804002e0
    8000382a:	0007bb83          	ld	s7,0(a5)
    8000382e:	003fd417          	auipc	s0,0x3fd
    80003832:	a2240413          	addi	s0,s0,-1502 # 0x80400250
    80003836:	00040223          	sb	zero,4(s0)
    8000383a:	ffffe097          	auipc	ra,0xffffe
    8000383e:	36a080e7          	jalr	874(ra) # 0x80001ba4
    80003842:	00001517          	auipc	a0,0x1
    80003846:	d8650513          	addi	a0,a0,-634 # 0x800045c8
    8000384a:	ffffe097          	auipc	ra,0xffffe
    8000384e:	2c2080e7          	jalr	706(ra) # 0x80001b0c
    80003852:	4681                	li	a3,0
    80003854:	860a                	mv	a2,sp
    80003856:	85a6                	mv	a1,s1
    80003858:	8522                	mv	a0,s0
    8000385a:	ffffe097          	auipc	ra,0xffffe
    8000385e:	556080e7          	jalr	1366(ra) # 0x80001db0
    80003862:	04050793          	addi	a5,a0,64
    80003866:	00278533          	add	a0,a5,sp
    8000386a:	fc050023          	sb	zero,-64(a0)
    8000386e:	850a                	mv	a0,sp
    80003870:	ffffe097          	auipc	ra,0xffffe
    80003874:	29c080e7          	jalr	668(ra) # 0x80001b0c
    80003878:	00001517          	auipc	a0,0x1
    8000387c:	d6050513          	addi	a0,a0,-672 # 0x800045d8
    80003880:	ffffe097          	auipc	ra,0xffffe
    80003884:	28c080e7          	jalr	652(ra) # 0x80001b0c
    80003888:	47c1                	li	a5,16
    8000388a:	c01c                	sw	a5,0(s0)
    8000388c:	00001517          	auipc	a0,0x1
    80003890:	d5450513          	addi	a0,a0,-684 # 0x800045e0
    80003894:	ffffe097          	auipc	ra,0xffffe
    80003898:	278080e7          	jalr	632(ra) # 0x80001b0c
    8000389c:	860a                	mv	a2,sp
    8000389e:	85de                	mv	a1,s7
    800038a0:	8522                	mv	a0,s0
    800038a2:	ffffe097          	auipc	ra,0xffffe
    800038a6:	5f4080e7          	jalr	1524(ra) # 0x80001e96
    800038aa:	04050793          	addi	a5,a0,64
    800038ae:	00278533          	add	a0,a5,sp
    800038b2:	fc050023          	sb	zero,-64(a0)
    800038b6:	850a                	mv	a0,sp
    800038b8:	ffffe097          	auipc	ra,0xffffe
    800038bc:	254080e7          	jalr	596(ra) # 0x80001b0c
    800038c0:	00001517          	auipc	a0,0x1
    800038c4:	d2850513          	addi	a0,a0,-728 # 0x800045e8
    800038c8:	ffffe097          	auipc	ra,0xffffe
    800038cc:	244080e7          	jalr	580(ra) # 0x80001b0c
    800038d0:	4681                	li	a3,0
    800038d2:	860a                	mv	a2,sp
    800038d4:	000b059b          	sext.w	a1,s6
    800038d8:	8522                	mv	a0,s0
    800038da:	ffffe097          	auipc	ra,0xffffe
    800038de:	4d6080e7          	jalr	1238(ra) # 0x80001db0
    800038e2:	04050793          	addi	a5,a0,64
    800038e6:	00278533          	add	a0,a5,sp
    800038ea:	fc050023          	sb	zero,-64(a0)
    800038ee:	850a                	mv	a0,sp
    800038f0:	ffffe097          	auipc	ra,0xffffe
    800038f4:	21c080e7          	jalr	540(ra) # 0x80001b0c
    800038f8:	00001517          	auipc	a0,0x1
    800038fc:	cf850513          	addi	a0,a0,-776 # 0x800045f0
    80003900:	ffffe097          	auipc	ra,0xffffe
    80003904:	20c080e7          	jalr	524(ra) # 0x80001b0c
    80003908:	4681                	li	a3,0
    8000390a:	860a                	mv	a2,sp
    8000390c:	000a859b          	sext.w	a1,s5
    80003910:	8522                	mv	a0,s0
    80003912:	ffffe097          	auipc	ra,0xffffe
    80003916:	49e080e7          	jalr	1182(ra) # 0x80001db0
    8000391a:	04050793          	addi	a5,a0,64
    8000391e:	00278533          	add	a0,a5,sp
    80003922:	fc050023          	sb	zero,-64(a0)
    80003926:	850a                	mv	a0,sp
    80003928:	ffffe097          	auipc	ra,0xffffe
    8000392c:	1e4080e7          	jalr	484(ra) # 0x80001b0c
    80003930:	00001517          	auipc	a0,0x1
    80003934:	cc850513          	addi	a0,a0,-824 # 0x800045f8
    80003938:	ffffe097          	auipc	ra,0xffffe
    8000393c:	1d4080e7          	jalr	468(ra) # 0x80001b0c
    80003940:	4681                	li	a3,0
    80003942:	860a                	mv	a2,sp
    80003944:	000a059b          	sext.w	a1,s4
    80003948:	8522                	mv	a0,s0
    8000394a:	ffffe097          	auipc	ra,0xffffe
    8000394e:	466080e7          	jalr	1126(ra) # 0x80001db0
    80003952:	04050793          	addi	a5,a0,64
    80003956:	00278533          	add	a0,a5,sp
    8000395a:	fc050023          	sb	zero,-64(a0)
    8000395e:	850a                	mv	a0,sp
    80003960:	ffffe097          	auipc	ra,0xffffe
    80003964:	1ac080e7          	jalr	428(ra) # 0x80001b0c
    80003968:	00001517          	auipc	a0,0x1
    8000396c:	ca050513          	addi	a0,a0,-864 # 0x80004608
    80003970:	ffffe097          	auipc	ra,0xffffe
    80003974:	19c080e7          	jalr	412(ra) # 0x80001b0c
    80003978:	4681                	li	a3,0
    8000397a:	860a                	mv	a2,sp
    8000397c:	0009859b          	sext.w	a1,s3
    80003980:	8522                	mv	a0,s0
    80003982:	ffffe097          	auipc	ra,0xffffe
    80003986:	42e080e7          	jalr	1070(ra) # 0x80001db0
    8000398a:	04050793          	addi	a5,a0,64
    8000398e:	00278533          	add	a0,a5,sp
    80003992:	fc050023          	sb	zero,-64(a0)
    80003996:	850a                	mv	a0,sp
    80003998:	ffffe097          	auipc	ra,0xffffe
    8000399c:	174080e7          	jalr	372(ra) # 0x80001b0c
    800039a0:	00001517          	auipc	a0,0x1
    800039a4:	c7050513          	addi	a0,a0,-912 # 0x80004610
    800039a8:	ffffe097          	auipc	ra,0xffffe
    800039ac:	164080e7          	jalr	356(ra) # 0x80001b0c
    800039b0:	4681                	li	a3,0
    800039b2:	860a                	mv	a2,sp
    800039b4:	0009059b          	sext.w	a1,s2
    800039b8:	8522                	mv	a0,s0
    800039ba:	ffffe097          	auipc	ra,0xffffe
    800039be:	3f6080e7          	jalr	1014(ra) # 0x80001db0
    800039c2:	04050793          	addi	a5,a0,64
    800039c6:	00278533          	add	a0,a5,sp
    800039ca:	fc050023          	sb	zero,-64(a0)
    800039ce:	850a                	mv	a0,sp
    800039d0:	ffffe097          	auipc	ra,0xffffe
    800039d4:	13c080e7          	jalr	316(ra) # 0x80001b0c
    800039d8:	00001517          	auipc	a0,0x1
    800039dc:	c4050513          	addi	a0,a0,-960 # 0x80004618
    800039e0:	ffffe097          	auipc	ra,0xffffe
    800039e4:	12c080e7          	jalr	300(ra) # 0x80001b0c
    800039e8:	47a9                	li	a5,10
    800039ea:	c01c                	sw	a5,0(s0)
    800039ec:	47bd                	li	a5,15
    800039ee:	0297eb63          	bltu	a5,s1,0x80003a24
    800039f2:	048a                	slli	s1,s1,0x2
    800039f4:	00001717          	auipc	a4,0x1
    800039f8:	d6870713          	addi	a4,a4,-664 # 0x8000475c
    800039fc:	94ba                	add	s1,s1,a4
    800039fe:	409c                	lw	a5,0(s1)
    80003a00:	97ba                	add	a5,a5,a4
    80003a02:	8782                	jr	a5
    80003a04:	003fd797          	auipc	a5,0x3fd
    80003a08:	84078823          	sb	zero,-1968(a5) # 0x80400254
    80003a0c:	ffffe097          	auipc	ra,0xffffe
    80003a10:	198080e7          	jalr	408(ra) # 0x80001ba4
    80003a14:	00001517          	auipc	a0,0x1
    80003a18:	c0c50513          	addi	a0,a0,-1012 # 0x80004620
    80003a1c:	ffffe097          	auipc	ra,0xffffe
    80003a20:	0f0080e7          	jalr	240(ra) # 0x80001b0c
    80003a24:	003fd417          	auipc	s0,0x3fd
    80003a28:	82c40413          	addi	s0,s0,-2004 # 0x80400250
    80003a2c:	00040223          	sb	zero,4(s0)
    80003a30:	ffffe097          	auipc	ra,0xffffe
    80003a34:	174080e7          	jalr	372(ra) # 0x80001ba4
    80003a38:	00444503          	lbu	a0,4(s0)
    80003a3c:	ffffe097          	auipc	ra,0xffffe
    80003a40:	16a080e7          	jalr	362(ra) # 0x80001ba6
    80003a44:	00000517          	auipc	a0,0x0
    80003a48:	50c50513          	addi	a0,a0,1292 # 0x80003f50
    80003a4c:	ffffe097          	auipc	ra,0xffffe
    80003a50:	0c0080e7          	jalr	192(ra) # 0x80001b0c
    80003a54:	47a9                	li	a5,10
    80003a56:	c01c                	sw	a5,0(s0)
    80003a58:	47a1                	li	a5,8
    80003a5a:	853e                	mv	a0,a5
    80003a5c:	60aa                	ld	ra,136(sp)
    80003a5e:	640a                	ld	s0,128(sp)
    80003a60:	74e6                	ld	s1,120(sp)
    80003a62:	7946                	ld	s2,112(sp)
    80003a64:	79a6                	ld	s3,104(sp)
    80003a66:	7a06                	ld	s4,96(sp)
    80003a68:	6ae6                	ld	s5,88(sp)
    80003a6a:	6b46                	ld	s6,80(sp)
    80003a6c:	6ba6                	ld	s7,72(sp)
    80003a6e:	6149                	addi	sp,sp,144
    80003a70:	8082                	ret
    80003a72:	003fc797          	auipc	a5,0x3fc
    80003a76:	7e078123          	sb	zero,2018(a5) # 0x80400254
    80003a7a:	ffffe097          	auipc	ra,0xffffe
    80003a7e:	12a080e7          	jalr	298(ra) # 0x80001ba4
    80003a82:	00001517          	auipc	a0,0x1
    80003a86:	bbe50513          	addi	a0,a0,-1090 # 0x80004640
    80003a8a:	ffffe097          	auipc	ra,0xffffe
    80003a8e:	082080e7          	jalr	130(ra) # 0x80001b0c
    80003a92:	bf49                	j	0x80003a24
    80003a94:	003fc797          	auipc	a5,0x3fc
    80003a98:	7c078023          	sb	zero,1984(a5) # 0x80400254
    80003a9c:	ffffe097          	auipc	ra,0xffffe
    80003aa0:	108080e7          	jalr	264(ra) # 0x80001ba4
    80003aa4:	00001517          	auipc	a0,0x1
    80003aa8:	bc450513          	addi	a0,a0,-1084 # 0x80004668
    80003aac:	ffffe097          	auipc	ra,0xffffe
    80003ab0:	060080e7          	jalr	96(ra) # 0x80001b0c
    80003ab4:	bf85                	j	0x80003a24
    80003ab6:	003fc797          	auipc	a5,0x3fc
    80003aba:	78078f23          	sb	zero,1950(a5) # 0x80400254
    80003abe:	ffffe097          	auipc	ra,0xffffe
    80003ac2:	0e6080e7          	jalr	230(ra) # 0x80001ba4
    80003ac6:	00001517          	auipc	a0,0x1
    80003aca:	bba50513          	addi	a0,a0,-1094 # 0x80004680
    80003ace:	ffffe097          	auipc	ra,0xffffe
    80003ad2:	03e080e7          	jalr	62(ra) # 0x80001b0c
    80003ad6:	b7b9                	j	0x80003a24
    80003ad8:	003fc797          	auipc	a5,0x3fc
    80003adc:	76078e23          	sb	zero,1916(a5) # 0x80400254
    80003ae0:	ffffe097          	auipc	ra,0xffffe
    80003ae4:	0c4080e7          	jalr	196(ra) # 0x80001ba4
    80003ae8:	00001517          	auipc	a0,0x1
    80003aec:	ba850513          	addi	a0,a0,-1112 # 0x80004690
    80003af0:	ffffe097          	auipc	ra,0xffffe
    80003af4:	01c080e7          	jalr	28(ra) # 0x80001b0c
    80003af8:	b735                	j	0x80003a24
    80003afa:	003fc797          	auipc	a5,0x3fc
    80003afe:	74078d23          	sb	zero,1882(a5) # 0x80400254
    80003b02:	ffffe097          	auipc	ra,0xffffe
    80003b06:	0a2080e7          	jalr	162(ra) # 0x80001ba4
    80003b0a:	00001517          	auipc	a0,0x1
    80003b0e:	b9e50513          	addi	a0,a0,-1122 # 0x800046a8
    80003b12:	ffffe097          	auipc	ra,0xffffe
    80003b16:	ffa080e7          	jalr	-6(ra) # 0x80001b0c
    80003b1a:	b729                	j	0x80003a24
    80003b1c:	003fc797          	auipc	a5,0x3fc
    80003b20:	72078c23          	sb	zero,1848(a5) # 0x80400254
    80003b24:	ffffe097          	auipc	ra,0xffffe
    80003b28:	080080e7          	jalr	128(ra) # 0x80001ba4
    80003b2c:	00001517          	auipc	a0,0x1
    80003b30:	ba450513          	addi	a0,a0,-1116 # 0x800046d0
    80003b34:	ffffe097          	auipc	ra,0xffffe
    80003b38:	fd8080e7          	jalr	-40(ra) # 0x80001b0c
    80003b3c:	b5e5                	j	0x80003a24
    80003b3e:	003fc797          	auipc	a5,0x3fc
    80003b42:	70078b23          	sb	zero,1814(a5) # 0x80400254
    80003b46:	ffffe097          	auipc	ra,0xffffe
    80003b4a:	05e080e7          	jalr	94(ra) # 0x80001ba4
    80003b4e:	00001517          	auipc	a0,0x1
    80003b52:	ba250513          	addi	a0,a0,-1118 # 0x800046f0
    80003b56:	ffffe097          	auipc	ra,0xffffe
    80003b5a:	fb6080e7          	jalr	-74(ra) # 0x80001b0c
    80003b5e:	b5d9                	j	0x80003a24
    80003b60:	003fc797          	auipc	a5,0x3fc
    80003b64:	6e078a23          	sb	zero,1780(a5) # 0x80400254
    80003b68:	ffffe097          	auipc	ra,0xffffe
    80003b6c:	03c080e7          	jalr	60(ra) # 0x80001ba4
    80003b70:	00001517          	auipc	a0,0x1
    80003b74:	ba850513          	addi	a0,a0,-1112 # 0x80004718
    80003b78:	ffffe097          	auipc	ra,0xffffe
    80003b7c:	f94080e7          	jalr	-108(ra) # 0x80001b0c
    80003b80:	b555                	j	0x80003a24
    80003b82:	003fc797          	auipc	a5,0x3fc
    80003b86:	6c078923          	sb	zero,1746(a5) # 0x80400254
    80003b8a:	ffffe097          	auipc	ra,0xffffe
    80003b8e:	01a080e7          	jalr	26(ra) # 0x80001ba4
    80003b92:	00001517          	auipc	a0,0x1
    80003b96:	b9650513          	addi	a0,a0,-1130 # 0x80004728
    80003b9a:	ffffe097          	auipc	ra,0xffffe
    80003b9e:	f72080e7          	jalr	-142(ra) # 0x80001b0c
    80003ba2:	b549                	j	0x80003a24
    80003ba4:	003fc797          	auipc	a5,0x3fc
    80003ba8:	6a078823          	sb	zero,1712(a5) # 0x80400254
    80003bac:	ffffe097          	auipc	ra,0xffffe
    80003bb0:	ff8080e7          	jalr	-8(ra) # 0x80001ba4
    80003bb4:	00001517          	auipc	a0,0x1
    80003bb8:	b8450513          	addi	a0,a0,-1148 # 0x80004738
    80003bbc:	ffffe097          	auipc	ra,0xffffe
    80003bc0:	f50080e7          	jalr	-176(ra) # 0x80001b0c
    80003bc4:	b585                	j	0x80003a24
    80003bc6:	1141                	addi	sp,sp,-16
    80003bc8:	e406                	sd	ra,8(sp)
    80003bca:	e022                	sd	s0,0(sp)
    80003bcc:	003fc417          	auipc	s0,0x3fc
    80003bd0:	68440413          	addi	s0,s0,1668 # 0x80400250
    80003bd4:	00040223          	sb	zero,4(s0)
    80003bd8:	ffffe097          	auipc	ra,0xffffe
    80003bdc:	fcc080e7          	jalr	-52(ra) # 0x80001ba4
    80003be0:	00001517          	auipc	a0,0x1
    80003be4:	bc050513          	addi	a0,a0,-1088 # 0x800047a0
    80003be8:	ffffe097          	auipc	ra,0xffffe
    80003bec:	f24080e7          	jalr	-220(ra) # 0x80001b0c
    80003bf0:	00444503          	lbu	a0,4(s0)
    80003bf4:	ffffe097          	auipc	ra,0xffffe
    80003bf8:	fb2080e7          	jalr	-78(ra) # 0x80001ba6
    80003bfc:	00000517          	auipc	a0,0x0
    80003c00:	35450513          	addi	a0,a0,852 # 0x80003f50
    80003c04:	ffffe097          	auipc	ra,0xffffe
    80003c08:	f08080e7          	jalr	-248(ra) # 0x80001b0c
    80003c0c:	47a9                	li	a5,10
    80003c0e:	c01c                	sw	a5,0(s0)
    80003c10:	a001                	j	0x80003c10
    80003c12:	1141                	addi	sp,sp,-16
    80003c14:	e406                	sd	ra,8(sp)
    80003c16:	10017073          	csrci	sstatus,2
    80003c1a:	05000693          	li	a3,80
    80003c1e:	00001617          	auipc	a2,0x1
    80003c22:	b9a60613          	addi	a2,a2,-1126 # 0x800047b8
    80003c26:	4825                	li	a6,9
    80003c28:	100107b7          	lui	a5,0x10010
    80003c2c:	003fc597          	auipc	a1,0x3fc
    80003c30:	66858593          	addi	a1,a1,1640 # 0x80400294
    80003c34:	4529                	li	a0,10
    80003c36:	4335                	li	t1,13
    80003c38:	003fc897          	auipc	a7,0x3fc
    80003c3c:	65888893          	addi	a7,a7,1624 # 0x80400290
    80003c40:	04f00e13          	li	t3,79
    80003c44:	a821                	j	0x80003c5c
    80003c46:	4398                	lw	a4,0(a5)
    80003c48:	fe074fe3          	bltz	a4,0x80003c46
    80003c4c:	0107a023          	sw	a6,0(a5) # 0x10010000
    80003c50:	4198                	lw	a4,0(a1)
    80003c52:	2721                	addiw	a4,a4,8
    80003c54:	c198                	sw	a4,0(a1)
    80003c56:	00064683          	lbu	a3,0(a2)
    80003c5a:	ceb1                	beqz	a3,0x80003cb6
    80003c5c:	0605                	addi	a2,a2,1
    80003c5e:	ff0684e3          	beq	a3,a6,0x80003c46
    80003c62:	02a69363          	bne	a3,a0,0x80003c88
    80003c66:	4398                	lw	a4,0(a5)
    80003c68:	fe074fe3          	bltz	a4,0x80003c66
    80003c6c:	0067a023          	sw	t1,0(a5)
    80003c70:	4398                	lw	a4,0(a5)
    80003c72:	fe074fe3          	bltz	a4,0x80003c70
    80003c76:	c388                	sw	a0,0(a5)
    80003c78:	0005a023          	sw	zero,0(a1)
    80003c7c:	0008a703          	lw	a4,0(a7)
    80003c80:	2705                	addiw	a4,a4,1
    80003c82:	00e8a023          	sw	a4,0(a7)
    80003c86:	bfc1                	j	0x80003c56
    80003c88:	4198                	lw	a4,0(a1)
    80003c8a:	2705                	addiw	a4,a4,1
    80003c8c:	c198                	sw	a4,0(a1)
    80003c8e:	4398                	lw	a4,0(a5)
    80003c90:	fe074fe3          	bltz	a4,0x80003c8e
    80003c94:	2681                	sext.w	a3,a3
    80003c96:	c394                	sw	a3,0(a5)
    80003c98:	4198                	lw	a4,0(a1)
    80003c9a:	faee5ee3          	bge	t3,a4,0x80003c56
    80003c9e:	4398                	lw	a4,0(a5)
    80003ca0:	fe074fe3          	bltz	a4,0x80003c9e
    80003ca4:	0067a023          	sw	t1,0(a5)
    80003ca8:	4398                	lw	a4,0(a5)
    80003caa:	fe074fe3          	bltz	a4,0x80003ca8
    80003cae:	c388                	sw	a0,0(a5)
    80003cb0:	0005a023          	sw	zero,0(a1)
    80003cb4:	b74d                	j	0x80003c56
    80003cb6:	00000097          	auipc	ra,0x0
    80003cba:	f10080e7          	jalr	-240(ra) # 0x80003bc6
    80003cbe:	1141                	addi	sp,sp,-16
    80003cc0:	e406                	sd	ra,8(sp)
    80003cc2:	e022                	sd	s0,0(sp)
    80003cc4:	842a                	mv	s0,a0
    80003cc6:	003fc797          	auipc	a5,0x3fc
    80003cca:	7427b783          	ld	a5,1858(a5) # 0x80400408
    80003cce:	c791                	beqz	a5,0x80003cda
    80003cd0:	6f98                	ld	a4,24(a5)
    80003cd2:	177d                	addi	a4,a4,-1
    80003cd4:	ef98                	sd	a4,24(a5)
    80003cd6:	02e05063          	blez	a4,0x80003cf6
    80003cda:	003fc797          	auipc	a5,0x3fc
    80003cde:	7267b783          	ld	a5,1830(a5) # 0x80400400
    80003ce2:	c791                	beqz	a5,0x80003cee
    80003ce4:	6f98                	ld	a4,24(a5)
    80003ce6:	177d                	addi	a4,a4,-1
    80003ce8:	ef98                	sd	a4,24(a5)
    80003cea:	00e05b63          	blez	a4,0x80003d00
    80003cee:	60a2                	ld	ra,8(sp)
    80003cf0:	6402                	ld	s0,0(sp)
    80003cf2:	0141                	addi	sp,sp,16
    80003cf4:	8082                	ret
    80003cf6:	6798                	ld	a4,8(a5)
    80003cf8:	ef98                	sd	a4,24(a5)
    80003cfa:	739c                	ld	a5,32(a5)
    80003cfc:	9782                	jalr	a5
    80003cfe:	bff1                	j	0x80003cda
    80003d00:	6798                	ld	a4,8(a5)
    80003d02:	ef98                	sd	a4,24(a5)
    80003d04:	739c                	ld	a5,32(a5)
    80003d06:	8522                	mv	a0,s0
    80003d08:	9782                	jalr	a5
    80003d0a:	b7d5                	j	0x80003cee
    80003d0c:	812a                	mv	sp,a0
    80003d0e:	6182                	ld	gp,0(sp)
    80003d10:	34119073          	csrw	mepc,gp
    80003d14:	61a2                	ld	gp,8(sp)
    80003d16:	6509                	lui	a0,0x2
    80003d18:	8005051b          	addiw	a0,a0,-2048 # 0x1800
    80003d1c:	00a1e1b3          	or	gp,gp,a0
    80003d20:	60c2                	ld	ra,16(sp)
    80003d22:	62e2                	ld	t0,24(sp)
    80003d24:	7302                	ld	t1,32(sp)
    80003d26:	73a2                	ld	t2,40(sp)
    80003d28:	7442                	ld	s0,48(sp)
    80003d2a:	74e2                	ld	s1,56(sp)
    80003d2c:	6506                	ld	a0,64(sp)
    80003d2e:	65a6                	ld	a1,72(sp)
    80003d30:	6646                	ld	a2,80(sp)
    80003d32:	66e6                	ld	a3,88(sp)
    80003d34:	7706                	ld	a4,96(sp)
    80003d36:	77a6                	ld	a5,104(sp)
    80003d38:	7846                	ld	a6,112(sp)
    80003d3a:	78e6                	ld	a7,120(sp)
    80003d3c:	690a                	ld	s2,128(sp)
    80003d3e:	69aa                	ld	s3,136(sp)
    80003d40:	6a4a                	ld	s4,144(sp)
    80003d42:	6aea                	ld	s5,152(sp)
    80003d44:	7b0a                	ld	s6,160(sp)
    80003d46:	7baa                	ld	s7,168(sp)
    80003d48:	7c4a                	ld	s8,176(sp)
    80003d4a:	7cea                	ld	s9,184(sp)
    80003d4c:	6d0e                	ld	s10,192(sp)
    80003d4e:	6dae                	ld	s11,200(sp)
    80003d50:	6e4e                	ld	t3,208(sp)
    80003d52:	6eee                	ld	t4,216(sp)
    80003d54:	7f0e                	ld	t5,224(sp)
    80003d56:	7fae                	ld	t6,232(sp)
    80003d58:	616d                	addi	sp,sp,240
    80003d5a:	30019073          	csrw	mstatus,gp
    80003d5e:	10200073          	sret
    80003d62:	7151                	addi	sp,sp,-240
    80003d64:	c006                	sw	ra,0(sp)
    80003d66:	300021f3          	csrr	gp,mstatus
    80003d6a:	e40e                	sd	gp,8(sp)
    80003d6c:	e806                	sd	ra,16(sp)
    80003d6e:	ec16                	sd	t0,24(sp)
    80003d70:	f01a                	sd	t1,32(sp)
    80003d72:	f41e                	sd	t2,40(sp)
    80003d74:	f822                	sd	s0,48(sp)
    80003d76:	fc26                	sd	s1,56(sp)
    80003d78:	e0aa                	sd	a0,64(sp)
    80003d7a:	e4ae                	sd	a1,72(sp)
    80003d7c:	e8b2                	sd	a2,80(sp)
    80003d7e:	ecb6                	sd	a3,88(sp)
    80003d80:	f0ba                	sd	a4,96(sp)
    80003d82:	f4be                	sd	a5,104(sp)
    80003d84:	f8c2                	sd	a6,112(sp)
    80003d86:	fcc6                	sd	a7,120(sp)
    80003d88:	e14a                	sd	s2,128(sp)
    80003d8a:	e54e                	sd	s3,136(sp)
    80003d8c:	e952                	sd	s4,144(sp)
    80003d8e:	ed56                	sd	s5,152(sp)
    80003d90:	f15a                	sd	s6,160(sp)
    80003d92:	f55e                	sd	s7,168(sp)
    80003d94:	f962                	sd	s8,176(sp)
    80003d96:	fd66                	sd	s9,184(sp)
    80003d98:	e1ea                	sd	s10,192(sp)
    80003d9a:	e5ee                	sd	s11,200(sp)
    80003d9c:	e9f2                	sd	t3,208(sp)
    80003d9e:	edf6                	sd	t4,216(sp)
    80003da0:	f1fa                	sd	t5,224(sp)
    80003da2:	f5fe                	sd	t6,232(sp)
    80003da4:	00253023          	sd	sp,0(a0)
    80003da8:	812e                	mv	sp,a1
    80003daa:	6182                	ld	gp,0(sp)
    80003dac:	34119073          	csrw	mepc,gp
    80003db0:	61a2                	ld	gp,8(sp)
    80003db2:	6509                	lui	a0,0x2
    80003db4:	8005051b          	addiw	a0,a0,-2048 # 0x1800
    80003db8:	00a1e1b3          	or	gp,gp,a0
    80003dbc:	60c2                	ld	ra,16(sp)
    80003dbe:	62e2                	ld	t0,24(sp)
    80003dc0:	7302                	ld	t1,32(sp)
    80003dc2:	73a2                	ld	t2,40(sp)
    80003dc4:	7442                	ld	s0,48(sp)
    80003dc6:	74e2                	ld	s1,56(sp)
    80003dc8:	6506                	ld	a0,64(sp)
    80003dca:	65a6                	ld	a1,72(sp)
    80003dcc:	6646                	ld	a2,80(sp)
    80003dce:	66e6                	ld	a3,88(sp)
    80003dd0:	7706                	ld	a4,96(sp)
    80003dd2:	77a6                	ld	a5,104(sp)
    80003dd4:	7846                	ld	a6,112(sp)
    80003dd6:	78e6                	ld	a7,120(sp)
    80003dd8:	690a                	ld	s2,128(sp)
    80003dda:	69aa                	ld	s3,136(sp)
    80003ddc:	6a4a                	ld	s4,144(sp)
    80003dde:	6aea                	ld	s5,152(sp)
    80003de0:	7b0a                	ld	s6,160(sp)
    80003de2:	7baa                	ld	s7,168(sp)
    80003de4:	7c4a                	ld	s8,176(sp)
    80003de6:	7cea                	ld	s9,184(sp)
    80003de8:	6d0e                	ld	s10,192(sp)
    80003dea:	6dae                	ld	s11,200(sp)
    80003dec:	6e4e                	ld	t3,208(sp)
    80003dee:	6eee                	ld	t4,216(sp)
    80003df0:	7f0e                	ld	t5,224(sp)
    80003df2:	7fae                	ld	t6,232(sp)
    80003df4:	616d                	addi	sp,sp,240
    80003df6:	30019073          	csrw	mstatus,gp
    80003dfa:	10200073          	sret
    80003dfe:	003fc797          	auipc	a5,0x3fc
    80003e02:	61278793          	addi	a5,a5,1554 # 0x80400410
    80003e06:	0007b023          	sd	zero,0(a5)
    80003e0a:	0007b423          	sd	zero,8(a5)
    80003e0e:	0007b823          	sd	zero,16(a5)
    80003e12:	0007bc23          	sd	zero,24(a5)
    80003e16:	003fc797          	auipc	a5,0x3fc
    80003e1a:	61a78793          	addi	a5,a5,1562 # 0x80400430
    80003e1e:	0007b023          	sd	zero,0(a5)
    80003e22:	0007b423          	sd	zero,8(a5)
    80003e26:	0007b823          	sd	zero,16(a5)
    80003e2a:	0007bc23          	sd	zero,24(a5)
    80003e2e:	8082                	ret
    80003e30:	00757793          	andi	a5,a0,7
    80003e34:	c38d                	beqz	a5,0x80003e56
    80003e36:	fff60713          	addi	a4,a2,-1
    80003e3a:	87aa                	mv	a5,a0
    80003e3c:	587d                	li	a6,-1
    80003e3e:	ca19                	beqz	a2,0x80003e54
    80003e40:	0785                	addi	a5,a5,1
    80003e42:	feb78fa3          	sb	a1,-1(a5)
    80003e46:	0077f693          	andi	a3,a5,7
    80003e4a:	ca81                	beqz	a3,0x80003e5a
    80003e4c:	177d                	addi	a4,a4,-1
    80003e4e:	ff0719e3          	bne	a4,a6,0x80003e40
    80003e52:	a839                	j	0x80003e70
    80003e54:	8082                	ret
    80003e56:	87aa                	mv	a5,a0
    80003e58:	8732                	mv	a4,a2
    80003e5a:	469d                	li	a3,7
    80003e5c:	00e6ec63          	bltu	a3,a4,0x80003e74
    80003e60:	00e786b3          	add	a3,a5,a4
    80003e64:	c719                	beqz	a4,0x80003e72
    80003e66:	0785                	addi	a5,a5,1
    80003e68:	feb78fa3          	sb	a1,-1(a5)
    80003e6c:	fef69de3          	bne	a3,a5,0x80003e66
    80003e70:	8082                	ret
    80003e72:	8082                	ret
    80003e74:	0ff5f693          	zext.b	a3,a1
    80003e78:	00869613          	slli	a2,a3,0x8
    80003e7c:	8e55                	or	a2,a2,a3
    80003e7e:	01061693          	slli	a3,a2,0x10
    80003e82:	8ed1                	or	a3,a3,a2
    80003e84:	02069613          	slli	a2,a3,0x20
    80003e88:	8ed1                	or	a3,a3,a2
    80003e8a:	467d                	li	a2,31
    80003e8c:	04e67563          	bgeu	a2,a4,0x80003ed6
    80003e90:	fe070613          	addi	a2,a4,-32
    80003e94:	9a01                	andi	a2,a2,-32
    80003e96:	02060613          	addi	a2,a2,32
    80003e9a:	963e                	add	a2,a2,a5
    80003e9c:	e394                	sd	a3,0(a5)
    80003e9e:	e794                	sd	a3,8(a5)
    80003ea0:	eb94                	sd	a3,16(a5)
    80003ea2:	02078793          	addi	a5,a5,32
    80003ea6:	fed7bc23          	sd	a3,-8(a5)
    80003eaa:	fec799e3          	bne	a5,a2,0x80003e9c
    80003eae:	01f77813          	andi	a6,a4,31
    80003eb2:	01877613          	andi	a2,a4,24
    80003eb6:	8742                	mv	a4,a6
    80003eb8:	d645                	beqz	a2,0x80003e60
    80003eba:	ff880613          	addi	a2,a6,-8
    80003ebe:	9a61                	andi	a2,a2,-8
    80003ec0:	0621                	addi	a2,a2,8
    80003ec2:	963e                	add	a2,a2,a5
    80003ec4:	07a1                	addi	a5,a5,8
    80003ec6:	fed7bc23          	sd	a3,-8(a5)
    80003eca:	fef61de3          	bne	a2,a5,0x80003ec4
    80003ece:	00787713          	andi	a4,a6,7
    80003ed2:	87b2                	mv	a5,a2
    80003ed4:	b771                	j	0x80003e60
    80003ed6:	883a                	mv	a6,a4
    80003ed8:	b7cd                	j	0x80003eba

Disassembly of section .fini:

0000000080003eda <.fini>:
    80003eda:	003fc797          	auipc	a5,0x3fc
    80003ede:	33e7a783          	lw	a5,830(a5) # 0x80400218
    80003ee2:	c391                	beqz	a5,0x80003ee6
    80003ee4:	8082                	ret
    80003ee6:	4785                	li	a5,1
    80003ee8:	003fc717          	auipc	a4,0x3fc
    80003eec:	32f72823          	sw	a5,816(a4) # 0x80400218
    80003ef0:	00002797          	auipc	a5,0x2
    80003ef4:	1087b783          	ld	a5,264(a5) # 0x80005ff8
    80003ef8:	d7f5                	beqz	a5,0x80003ee4
    80003efa:	1141                	addi	sp,sp,-16
    80003efc:	e406                	sd	ra,8(sp)
    80003efe:	e022                	sd	s0,0(sp)
    80003f00:	00002417          	auipc	s0,0x2
    80003f04:	0f840413          	addi	s0,s0,248 # 0x80005ff8
    80003f08:	9782                	jalr	a5
    80003f0a:	0421                	addi	s0,s0,8
    80003f0c:	601c                	ld	a5,0(s0)
    80003f0e:	ffed                	bnez	a5,0x80003f08
    80003f10:	60a2                	ld	ra,8(sp)
    80003f12:	6402                	ld	s0,0(sp)
    80003f14:	0141                	addi	sp,sp,16
    80003f16:	8082                	ret

Disassembly of section .rodata:

0000000080003f18 <.rodata>:
    80003f18:	6f4e                	ld	t5,208(sp)
    80003f1a:	4120                	lw	s0,64(a0)
    80003f1c:	5050                	lw	a2,36(s0)
    80003f1e:	494c                	lw	a1,20(a0)
    80003f20:	49544143          	fmadd.s	ft2,fs0,fs5,fs1,rmm
    80003f24:	69204e4f          	fnmadd.s	ft8,ft0,fs2,fa3,rmm
    80003f28:	206e                	fld	ft0,216(sp)
    80003f2a:	6f62                	ld	t5,24(sp)
    80003f2c:	6920746f          	jal	s0,0x8000b5be
    80003f30:	616d                	addi	sp,sp,240
    80003f32:	202c6567          	.4byte	0x202c6567
    80003f36:	6f79                	lui	t5,0x1e
    80003f38:	2075                	.2byte	0x2075
    80003f3a:	6f64                	ld	s1,216(a4)
    80003f3c:	276e                	fld	fa4,216(sp)
    80003f3e:	2074                	fld	fa3,192(s0)
    80003f40:	656e                	ld	a0,216(sp)
    80003f42:	6465                	lui	s0,0x19
    80003f44:	4520                	lw	s0,72(a0)
    80003f46:	4f50                	lw	a2,28(a4)
    80003f48:	00002153          	fadd.s	ft2,ft0,ft0,rdn
    80003f4c:	0000                	unimp
    80003f4e:	0000                	unimp
    80003f50:	000a                	c.slli	zero,0x2
    80003f52:	0000                	unimp
    80003f54:	0000                	unimp
    80003f56:	0000                	unimp
    80003f58:	6854                	ld	a3,144(s0)
    80003f5a:	7369                	lui	t1,0xffffa
    80003f5c:	6920                	ld	s0,80(a0)
    80003f5e:	50452073          	csrs	0x504,a0
    80003f62:	0a21534f          	fnmadd.d	ft6,ft2,ft2,ft1,unknown
    80003f66:	0000                	unimp
    80003f68:	74746553          	.4byte	0x74746553
    80003f6c:	6e69                	lui	t3,0x1a
    80003f6e:	70752067          	.4byte	0x70752067
    80003f72:	7420                	ld	s0,104(s0)
    80003f74:	6968                	ld	a0,208(a0)
    80003f76:	616d2073          	csrs	0x616,s10
    80003f7a:	6e696863          	bltu	s2,t1,0x8000466a
    80003f7e:	2065                	.2byte	0x2065
    80003f80:	7361                	lui	t1,0xffff8
    80003f82:	6620                	ld	s0,72(a2)
    80003f84:	6f6c6c6f          	jal	s8,0x800ca67a
    80003f88:	203a7377          	.4byte	0x203a7377
    80003f8c:	0000                	unimp
    80003f8e:	0000                	unimp
    80003f90:	2020                	fld	fs0,64(s0)
    80003f92:	6f4d                	lui	t5,0x13
    80003f94:	6564                	ld	s1,200(a0)
    80003f96:	203a                	fld	ft0,392(sp)
    80003f98:	2020                	fld	fs0,64(s0)
    80003f9a:	2020                	fld	fs0,64(s0)
    80003f9c:	2020                	fld	fs0,64(s0)
    80003f9e:	2020                	fld	fs0,64(s0)
	...
    80003fa8:	696c                	ld	a1,208(a0)
    80003faa:	7262                	ld	tp,56(sp)
    80003fac:	7261                	lui	tp,0xffff8
    80003fae:	0079                	c.nop	30
    80003fb0:	2020                	fld	fs0,64(s0)
    80003fb2:	7250                	ld	a2,160(a2)
    80003fb4:	7365636f          	jal	t1,0x8005a6ea
    80003fb8:	3a726f73          	csrrsi	t5,0x3a7,4
    80003fbc:	2020                	fld	fs0,64(s0)
    80003fbe:	2020                	fld	fs0,64(s0)
	...
    80003fc8:	7820                	ld	s0,112(s0)
    80003fca:	5220                	lw	s0,96(a2)
    80003fcc:	0056                	c.slli	zero,0x15
    80003fce:	0000                	unimp
    80003fd0:	6120                	ld	s0,64(a0)
    80003fd2:	2074                	fld	fa3,192(s0)
    80003fd4:	0000                	unimp
    80003fd6:	0000                	unimp
    80003fd8:	4d20                	lw	s0,88(a0)
    80003fda:	7a48                	ld	a0,176(a2)
    80003fdc:	2820                	fld	fs0,80(s0)
    80003fde:	5542                	lw	a0,48(sp)
    80003fe0:	6c632053          	.4byte	0x6c632053
    80003fe4:	206b636f          	jal	t1,0x800ba1ea
    80003fe8:	203d                	.2byte	0x203d
    80003fea:	0000                	unimp
    80003fec:	0000                	unimp
    80003fee:	0000                	unimp
    80003ff0:	4d20                	lw	s0,88(a0)
    80003ff2:	7a48                	ld	a0,176(a2)
    80003ff4:	0029                	c.nop	10
    80003ff6:	0000                	unimp
    80003ff8:	2020                	fld	fs0,64(s0)
    80003ffa:	614d                	addi	sp,sp,176
    80003ffc:	6e696863          	bltu	s2,t1,0x800046ec
    80004000:	3a65                	addiw	s4,s4,-7 # 0xfff9
    80004002:	2020                	fld	fs0,64(s0)
    80004004:	2020                	fld	fs0,64(s0)
    80004006:	2020                	fld	fs0,64(s0)
    80004008:	69466953          	.4byte	0x69466953
    8000400c:	6576                	ld	a0,344(sp)
    8000400e:	552d                	li	a0,-21
	...
    80004018:	2020                	fld	fs0,64(s0)
    8000401a:	654d                	lui	a0,0x13
    8000401c:	6f6d                	lui	t5,0x1b
    8000401e:	7972                	ld	s2,312(sp)
    80004020:	203a                	fld	ft0,392(sp)
    80004022:	2020                	fld	fs0,64(s0)
    80004024:	2020                	fld	fs0,64(s0)
    80004026:	2020                	fld	fs0,64(s0)
	...
    80004030:	4b20                	lw	s0,80(a4)
    80004032:	2042                	fld	ft0,16(sp)
    80004034:	0000005b          	.4byte	0x5b
    80004038:	003a                	c.slli	zero,0xe
    8000403a:	0000                	unimp
    8000403c:	0000                	unimp
    8000403e:	0000                	unimp
    80004040:	005d                	c.nop	23
    80004042:	0000                	unimp
    80004044:	0000                	unimp
    80004046:	0000                	unimp
    80004048:	2020                	fld	fs0,64(s0)
    8000404a:	7355                	lui	t1,0xffff5
    8000404c:	7265                	lui	tp,0xffff9
    8000404e:	6d20                	ld	s0,88(a0)
    80004050:	6d65                	lui	s10,0x19
    80004052:	3a79726f          	jal	tp,0x8009bbf8
    80004056:	2020                	fld	fs0,64(s0)
	...
    80004060:	2020                	fld	fs0,64(s0)
    80004062:	2f49                	addiw	t5,t5,18 # 0x1b012
    80004064:	7073204f          	fnmadd.s	ft0,ft6,ft7,fa4,rdn
    80004068:	6361                	lui	t1,0x18
    8000406a:	3a65                	addiw	s4,s4,-7
    8000406c:	2020                	fld	fs0,64(s0)
    8000406e:	2020                	fld	fs0,64(s0)
	...
    80004078:	2020                	fld	fs0,64(s0)
    8000407a:	6f4e                	ld	t5,208(sp)
    8000407c:	6564                	ld	s1,200(a0)
    8000407e:	4920                	lw	s0,80(a0)
    80004080:	3a64                	fld	fs1,240(a2)
    80004082:	2020                	fld	fs0,64(s0)
    80004084:	2020                	fld	fs0,64(s0)
    80004086:	2020                	fld	fs0,64(s0)
	...
    80004090:	2820                	fld	fs0,80(s0)
    80004092:	0000                	unimp
    80004094:	0000                	unimp
    80004096:	0000                	unimp
    80004098:	6c6c6977          	.4byte	0x6c6c6977
    8000409c:	6720                	ld	s0,72(a4)
    8000409e:	7465                	lui	s0,0xffff9
    800040a0:	6620                	ld	s0,72(a2)
    800040a2:	6f72                	ld	t5,280(sp)
    800040a4:	206d                	.2byte	0x206d
    800040a6:	6874                	ld	a3,208(s0)
    800040a8:	2065                	.2byte	0x2065
    800040aa:	656e                	ld	a0,216(sp)
    800040ac:	7774                	ld	a3,232(a4)
    800040ae:	216b726f          	jal	tp,0x800bb2c4
    800040b2:	0000                	unimp
    800040b4:	0000                	unimp
    800040b6:	0000                	unimp
    800040b8:	2020                	fld	fs0,64(s0)
    800040ba:	6f50                	ld	a2,152(a4)
    800040bc:	69746973          	csrrsi	s2,0x697,8
    800040c0:	203a6e6f          	jal	t3,0x800aaac2
    800040c4:	2020                	fld	fs0,64(s0)
    800040c6:	2020                	fld	fs0,64(s0)
	...
    800040d0:	0028                	addi	a0,sp,8
    800040d2:	0000                	unimp
    800040d4:	0000                	unimp
    800040d6:	0000                	unimp
    800040d8:	002c                	addi	a1,sp,8
    800040da:	0000                	unimp
    800040dc:	0000                	unimp
    800040de:	0000                	unimp
    800040e0:	2020                	fld	fs0,64(s0)
    800040e2:	7845                	lui	a6,0xffff1
    800040e4:	7274                	ld	a3,224(a2)
    800040e6:	7361                	lui	t1,0xffff8
    800040e8:	203a                	fld	ft0,392(sp)
    800040ea:	2020                	fld	fs0,64(s0)
    800040ec:	2020                	fld	fs0,64(s0)
    800040ee:	2020                	fld	fs0,64(s0)
	...
    800040f8:	6220                	ld	s0,64(a2)
    800040fa:	7479                	lui	s0,0xffffe
    800040fc:	7365                	lui	t1,0xffff9
    800040fe:	0000                	unimp
    80004100:	6620534f          	.4byte	0x6620534f
    80004104:	6961                	lui	s2,0x18
    80004106:	656c                	ld	a1,200(a0)
    80004108:	2064                	fld	fs1,192(s0)
    8000410a:	6f74                	ld	a3,216(a4)
    8000410c:	6920                	ld	s0,80(a0)
    8000410e:	696e                	ld	s2,216(sp)
    80004110:	2174                	fld	fa3,192(a0)
    80004112:	0000                	unimp
    80004114:	0000                	unimp
    80004116:	0000                	unimp
    80004118:	23232323          	sw	s2,550(t1) # 0xffffffffffff9226
    8000411c:	23232323          	sw	s2,550(t1)
    80004120:	23232323          	sw	s2,550(t1)
    80004124:	23232323          	sw	s2,550(t1)
    80004128:	4d4d2023          	sw	s4,1216(s10) # 0x194c0
    8000412c:	2055                	.2byte	0x2055
    8000412e:	4e49                	li	t3,18
    80004130:	5449                	li	s0,-14
    80004132:	2320                	fld	fs0,64(a4)
    80004134:	23232323          	sw	s2,550(t1)
    80004138:	23232323          	sw	s2,550(t1)
    8000413c:	23232323          	sw	s2,550(t1)
    80004140:	23232323          	sw	s2,550(t1)
    80004144:	0000                	unimp
    80004146:	0000                	unimp
    80004148:	6150                	ld	a2,128(a0)
    8000414a:	74206567          	.4byte	0x74206567
    8000414e:	6261                	lui	tp,0x18
    80004150:	656c                	ld	a1,200(a0)
    80004152:	6520                	ld	s0,72(a0)
    80004154:	746e                	ld	s0,248(sp)
    80004156:	6972                	ld	s2,280(sp)
    80004158:	7365                	lui	t1,0xffff9
    8000415a:	203a                	fld	ft0,392(sp)
    8000415c:	0000                	unimp
    8000415e:	0000                	unimp
    80004160:	6170                	ld	a2,192(a0)
    80004162:	3a736567          	.4byte	0x3a736567
    80004166:	0020                	addi	s0,sp,8
    80004168:	6170                	ld	a2,192(a0)
    8000416a:	74206567          	.4byte	0x74206567
    8000416e:	6261                	lui	tp,0x18
    80004170:	656c                	ld	a1,200(a0)
    80004172:	00203a73          	csrrc	s4,frm,zero
    80004176:	0000                	unimp
    80004178:	7461                	lui	s0,0xffff8
    8000417a:	6174                	ld	a3,192(a0)
    8000417c:	72656863          	bltu	a0,t1,0x800048ac
    80004180:	00203a73          	csrrc	s4,frm,zero
    80004184:	0000                	unimp
    80004186:	0000                	unimp
    80004188:	6170                	ld	a2,192(a0)
    8000418a:	64206567          	.4byte	0x64206567
    8000418e:	7269                	lui	tp,0xffffa
    80004190:	6365                	lui	t1,0x19
    80004192:	6f74                	ld	a3,216(a4)
    80004194:	6972                	ld	s2,280(sp)
    80004196:	7365                	lui	t1,0xffff9
    80004198:	203a                	fld	ft0,392(sp)
    8000419a:	0000                	unimp
    8000419c:	0000                	unimp
    8000419e:	0000                	unimp
    800041a0:	616d                	addi	sp,sp,240
    800041a2:	72657473          	csrrci	s0,0x726,10
    800041a6:	6320                	ld	s0,64(a4)
    800041a8:	6572                	ld	a0,280(sp)
    800041aa:	7461                	lui	s0,0xffff8
    800041ac:	6465                	lui	s0,0x19
    800041ae:	0021                	c.nop	8
    800041b0:	616d                	addi	sp,sp,240
    800041b2:	72657473          	csrrci	s0,0x726,10
    800041b6:	7220                	ld	s0,96(a2)
    800041b8:	6d65                	lui	s10,0x19
    800041ba:	7061                	c.lui	zero,0xffff8
    800041bc:	6570                	ld	a2,200(a0)
    800041be:	2164                	fld	fs1,192(a0)
	...
    800041c8:	616d                	addi	sp,sp,240
    800041ca:	72657473          	csrrci	s0,0x726,10
    800041ce:	7320                	ld	s0,96(a4)
    800041d0:	7465                	lui	s0,0xffff9
    800041d2:	0021                	c.nop	8
    800041d4:	0000                	unimp
    800041d6:	0000                	unimp
    800041d8:	6c74                	ld	a3,216(s0)
    800041da:	2062                	fld	ft0,24(sp)
    800041dc:	6c66                	ld	s8,88(sp)
    800041de:	7375                	lui	t1,0xffffd
    800041e0:	6568                	ld	a0,200(a0)
    800041e2:	2164                	fld	fs1,192(a0)
    800041e4:	0000                	unimp
    800041e6:	0000                	unimp
    800041e8:	70746173          	csrrsi	sp,0x707,8
    800041ec:	7320                	ld	s0,96(a4)
    800041ee:	7465                	lui	s0,0xffff9
    800041f0:	0021                	c.nop	8
    800041f2:	0000                	unimp
    800041f4:	0000                	unimp
    800041f6:	0000                	unimp
    800041f8:	6548                	ld	a0,136(a0)
    800041fa:	6c6c                	ld	a1,216(s0)
    800041fc:	6f77206f          	j	0x800770f2
    80004200:	6c72                	ld	s8,280(sp)
    80004202:	2164                	fld	fs1,192(a0)
    80004204:	0000                	unimp
    80004206:	0000                	unimp
    80004208:	6144                	ld	s1,128(a0)
    8000420a:	6174                	ld	a3,192(a0)
    8000420c:	6220                	ld	s0,64(a2)
    8000420e:	7361                	lui	t1,0xffff8
    80004210:	3d65                	addiw	s10,s10,-7 # 0x18ff9
    80004212:	0000                	unimp
    80004214:	0000                	unimp
    80004216:	0000                	unimp
    80004218:	65646f43          	.4byte	0x65646f43
    8000421c:	7320                	ld	s0,96(a4)
    8000421e:	6765                	lui	a4,0x19
    80004220:	003d                	c.nop	15
    80004222:	0000                	unimp
    80004224:	0000                	unimp
    80004226:	0000                	unimp
    80004228:	4d4d                	li	s10,19
    8000422a:	3a55                	addiw	s4,s4,-11
    8000422c:	613a                	ld	sp,392(sp)
    8000422e:	6c6c                	ld	a1,216(s0)
    80004230:	6628636f          	jal	t1,0x8008a892
    80004234:	6172                	ld	sp,280(sp)
    80004236:	656d                	lui	a0,0x1b
    80004238:	203a2973          	csrrs	s2,0x203,s4
    8000423c:	0000                	unimp
    8000423e:	0000                	unimp
    80004240:	6620                	ld	s0,72(a2)
    80004242:	6961                	lui	s2,0x18
    80004244:	656c                	ld	a1,200(a0)
    80004246:	0064                	addi	s1,sp,12
    80004248:	7341                	lui	t1,0xffff0
    8000424a:	74726573          	csrrsi	a0,0x747,4
    8000424e:	6f69                	lui	t5,0x1a
    80004250:	206e                	fld	ft0,216(sp)
    80004252:	6166                	ld	sp,88(sp)
    80004254:	6c69                	lui	s8,0x1a
    80004256:	203a                	fld	ft0,392(sp)
	...
    80004260:	735f 0069 0000      	.byte	0x5f, 0x73, 0x69, 0x00, 0x00, 0x00
    80004266:	0000                	unimp
    80004268:	202c                	fld	fa1,64(s0)
    8000426a:	7566                	ld	a0,120(sp)
    8000426c:	636e                	ld	t1,216(sp)
    8000426e:	6974                	ld	a3,208(a0)
    80004270:	003d6e6f          	jal	t3,0x800daa72
    80004274:	0000                	unimp
    80004276:	0000                	unimp
    80004278:	74617473          	csrrci	s0,0x746,2
    8000427c:	6369                	lui	t1,0x1a
    8000427e:	4520                	lw	s0,72(a0)
    80004280:	4f50                	lw	a2,28(a4)
    80004282:	533a3a53          	.4byte	0x533a3a53
    80004286:	3a3a                	fld	fs4,424(sp)
    80004288:	74737953          	.4byte	0x74737953
    8000428c:	6d65                	lui	s10,0x19
    8000428e:	495f 666e 2a6f      	.byte	0x5f, 0x49, 0x6e, 0x66, 0x6f, 0x2a
    80004294:	6320                	ld	s0,64(a4)
    80004296:	74736e6f          	jal	t3,0x8003b1dc
    8000429a:	4520                	lw	s0,72(a0)
    8000429c:	4f50                	lw	a2,28(a4)
    8000429e:	533a3a53          	.4byte	0x533a3a53
    800042a2:	3a3a                	fld	fs4,424(sp)
    800042a4:	74737953          	.4byte	0x74737953
    800042a8:	6d65                	lui	s10,0x19
    800042aa:	3a3a                	fld	fs4,424(sp)
    800042ac:	6e69                	lui	t3,0x1a
    800042ae:	6f66                	ld	t5,88(sp)
    800042b0:	2928                	fld	fa0,80(a0)
    800042b2:	0000                	unimp
    800042b4:	0000                	unimp
    800042b6:	0000                	unimp
    800042b8:	202c                	fld	fa1,64(s0)
    800042ba:	6966                	ld	s2,88(sp)
    800042bc:	656c                	ld	a1,200(a0)
    800042be:	003d                	c.nop	15
    800042c0:	6d6f682f          	.4byte	0x6d6f682f
    800042c4:	2f65                	addiw	t5,t5,25 # 0x1a019
    800042c6:	6e61                	lui	t3,0x18
    800042c8:	6874                	ld	a3,208(s0)
    800042ca:	5f796e6f          	jal	t3,0x8009b0c0
    800042ce:	656d616b          	.4byte	0x656d616b
    800042d2:	7372                	ld	t1,312(sp)
    800042d4:	7365442f          	.4byte	0x7365442f
    800042d8:	706f746b          	.4byte	0x706f746b
    800042dc:	5346552f          	.4byte	0x5346552f
    800042e0:	30322f43          	fmadd.s	ft10,ft4,ft3,ft6,rdn
    800042e4:	3332                	fld	ft6,296(sp)
    800042e6:	312e                	fld	ft2,232(sp)
    800042e8:	324f532f          	.4byte	0x324f532f
    800042ec:	6f70652f          	.4byte	0x6f70652f
    800042f0:	6e692f73          	csrrs	t5,0x6e6,s2
    800042f4:	64756c63          	bltu	a0,t2,0x8000494c
    800042f8:	2f65                	addiw	t5,t5,25
    800042fa:	74737973          	csrrci	s2,0x747,6
    800042fe:	6d65                	lui	s10,0x19
    80004300:	682e                	ld	a6,200(sp)
    80004302:	0000                	unimp
    80004304:	0000                	unimp
    80004306:	0000                	unimp
    80004308:	202c                	fld	fa1,64(s0)
    8000430a:	696c                	ld	a1,208(a0)
    8000430c:	656e                	ld	a0,216(sp)
    8000430e:	003d                	c.nop	15
    80004310:	6548                	ld	a0,136(a0)
    80004312:	7061                	c.lui	zero,0xffff8
    80004314:	3a3a                	fld	fs4,424(sp)
    80004316:	6c61                	lui	s8,0x18
    80004318:	6f6c                	ld	a1,216(a4)
    8000431a:	68742863          	.4byte	0x68742863
    8000431e:	7369                	lui	t1,0xffffa
    80004320:	003d                	c.nop	15
    80004322:	0000                	unimp
    80004324:	0000                	unimp
    80004326:	0000                	unimp
    80004328:	3a29                	addiw	s4,s4,-22
    8000432a:	6f20                	ld	s0,88(a4)
    8000432c:	7475                	lui	s0,0xffffd
    8000432e:	6f20                	ld	s0,88(a4)
    80004330:	2066                	fld	ft0,88(sp)
    80004332:	656d                	lui	a0,0x1b
    80004334:	6f6d                	lui	t5,0x1b
    80004336:	7972                	ld	s2,312(sp)
    80004338:	7720                	ld	s0,104(a4)
    8000433a:	6968                	ld	a0,208(a0)
    8000433c:	656c                	ld	a1,200(a0)
    8000433e:	6120                	ld	s0,64(a0)
    80004340:	6c6c                	ld	a1,216(s0)
    80004342:	7461636f          	jal	t1,0x8001aa88
    80004346:	6e69                	lui	t3,0x1a
    80004348:	00002067          	.4byte	0x2067
    8000434c:	0000                	unimp
    8000434e:	0000                	unimp
    80004350:	6220                	ld	s0,64(a2)
    80004352:	7479                	lui	s0,0xffffe
    80004354:	7365                	lui	t1,0xffff9
    80004356:	0021                	c.nop	8
    80004358:	3130                	fld	fa2,96(a0)
    8000435a:	3332                	fld	ft6,296(sp)
    8000435c:	3534                	fld	fa3,104(a0)
    8000435e:	3736                	fld	fa4,360(sp)
    80004360:	3938                	fld	fa4,112(a0)
    80004362:	6261                	lui	tp,0x18
    80004364:	66656463          	bltu	a0,t1,0x800049cc
	...
    80004370:	4d4d                	li	s10,19
    80004372:	3a55                	addiw	s4,s4,-11
    80004374:	503a                	.2byte	0x503a
    80004376:	6761                	lui	a4,0x18
    80004378:	5f65                	li	t5,-7
    8000437a:	6154                	ld	a3,128(a0)
    8000437c:	6c62                	ld	s8,24(sp)
    8000437e:	3a65                	addiw	s4,s4,-7
    80004380:	723a                	ld	tp,424(sp)
    80004382:	6d65                	lui	s10,0x19
    80004384:	7061                	c.lui	zero,0xffff8
    80004386:	6128                	ld	a0,64(a0)
    80004388:	6464                	ld	s1,200(s0)
    8000438a:	3d72                	fld	fs10,312(sp)
    8000438c:	0000                	unimp
    8000438e:	0000                	unimp
    80004390:	662c                	ld	a1,72(a2)
    80004392:	6f72                	ld	t5,280(sp)
    80004394:	3d6d                	addiw	s10,s10,-5 # 0x18ffb
    80004396:	0000                	unimp
    80004398:	742c                	ld	a1,104(s0)
    8000439a:	00003d6f          	jal	s10,0x8000739a
    8000439e:	0000                	unimp
    800043a0:	662c                	ld	a1,72(a2)
    800043a2:	616c                	ld	a1,192(a0)
    800043a4:	003d7367          	.4byte	0x3d7367
    800043a8:	4d4d                	li	s10,19
    800043aa:	3a55                	addiw	s4,s4,-11
    800043ac:	503a                	.2byte	0x503a
    800043ae:	6761                	lui	a4,0x18
    800043b0:	5f65                	li	t5,-7
    800043b2:	6154                	ld	a3,128(a0)
    800043b4:	6c62                	ld	s8,24(sp)
    800043b6:	3a65                	addiw	s4,s4,-7
    800043b8:	723a                	ld	tp,424(sp)
    800043ba:	6d65                	lui	s10,0x19
    800043bc:	7061                	c.lui	zero,0xffff8
    800043be:	6128                	ld	a0,64(a0)
    800043c0:	6c6c                	ld	a1,216(s0)
    800043c2:	6769                	lui	a4,0x1a
    800043c4:	656e                	ld	a0,216(sp)
    800043c6:	2164                	fld	fs1,192(a0)
    800043c8:	003d                	c.nop	15
    800043ca:	0000                	unimp
    800043cc:	0000                	unimp
    800043ce:	0000                	unimp
    800043d0:	4d4d                	li	s10,19
    800043d2:	3a55                	addiw	s4,s4,-11
    800043d4:	503a                	.2byte	0x503a
    800043d6:	6761                	lui	a4,0x18
    800043d8:	5f65                	li	t5,-7
    800043da:	6154                	ld	a3,128(a0)
    800043dc:	6c62                	ld	s8,24(sp)
    800043de:	3a65                	addiw	s4,s4,-7
    800043e0:	723a                	ld	tp,424(sp)
    800043e2:	6d65                	lui	s10,0x19
    800043e4:	7061                	c.lui	zero,0xffff8
    800043e6:	4c28                	lw	a0,88(s0)
    800043e8:	696b6f6f          	jal	t5,0x800baa7e
    800043ec:	676e                	ld	a4,216(sp)
    800043ee:	6620                	ld	s0,72(a2)
    800043f0:	7320726f          	jal	tp,0x8000bb22
    800043f4:	7574                	ld	a3,232(a0)
    800043f6:	6666                	ld	a2,88(sp)
	...
    80004400:	4d4d                	li	s10,19
    80004402:	3a55                	addiw	s4,s4,-11
    80004404:	613a                	ld	sp,392(sp)
    80004406:	6c6c                	ld	a1,216(s0)
    80004408:	735f636f          	jal	t1,0x800fb33c
    8000440c:	6765                	lui	a4,0x19
    8000440e:	656d                	lui	a0,0x1b
    80004410:	746e                	ld	s0,248(sp)
    80004412:	6228                	ld	a0,64(a2)
    80004414:	7479                	lui	s0,0xffffe
    80004416:	7365                	lui	t1,0xffff9
    80004418:	3a29                	addiw	s4,s4,-22
    8000441a:	0020                	addi	s0,sp,8
    8000441c:	0000                	unimp
    8000441e:	0000                	unimp
    80004420:	6f6c                	ld	a1,216(a4)
    80004422:	64656b63          	bltu	a0,t1,0x80004a78
    80004426:	2928                	fld	fa0,80(a0)
	...
    80004430:	74617473          	csrrci	s0,0x746,2
    80004434:	6369                	lui	t1,0x1a
    80004436:	7620                	ld	s0,104(a2)
    80004438:	2064696f          	jal	s2,0x8004a63e
    8000443c:	5045                	c.li	zero,-15
    8000443e:	3a3a534f          	fnmadd.d	ft6,fs4,ft3,ft7,unknown
    80004442:	543a3a53          	.4byte	0x543a3a53
    80004446:	7268                	ld	a0,224(a2)
    80004448:	6165                	addi	sp,sp,112
    8000444a:	3a64                	fld	fs1,240(a2)
    8000444c:	723a                	ld	tp,424(sp)
    8000444e:	7365                	lui	t1,0xffff9
    80004450:	64656863          	bltu	a0,t1,0x80004aa0
    80004454:	6c75                	lui	s8,0x1d
    80004456:	2865                	addiw	a6,a6,25 # 0xffffffffffff1019
    80004458:	0029                	c.nop	10
    8000445a:	0000                	unimp
    8000445c:	0000                	unimp
    8000445e:	0000                	unimp
    80004460:	6874                	ld	a3,208(s0)
    80004462:	6572                	ld	a0,280(sp)
    80004464:	6461                	lui	s0,0x18
    80004466:	632e                	ld	t1,200(sp)
    80004468:	00000063          	beqz	zero,0x80004468
    8000446c:	0000                	unimp
    8000446e:	0000                	unimp
    80004470:	5f28                	lw	a0,120(a4)
    80004472:	74617473          	csrrci	s0,0x746,2
    80004476:	2065                	.2byte	0x2065
    80004478:	3d21                	addiw	s10,s10,-24 # 0x18fe8
    8000447a:	5720                	lw	s0,104(a4)
    8000447c:	4941                	li	s2,16
    8000447e:	4954                	lw	a3,20(a0)
    80004480:	474e                	lw	a4,208(sp)
    80004482:	2029                	.2byte	0x2029
    80004484:	2626                	fld	fa2,72(sp)
    80004486:	2820                	fld	fs0,80(s0)
    80004488:	735f 6174 6574      	.byte	0x5f, 0x73, 0x74, 0x61, 0x74, 0x65
    8000448e:	2120                	fld	fs0,64(a0)
    80004490:	203d                	.2byte	0x203d
    80004492:	4946                	lw	s2,80(sp)
    80004494:	494e                	lw	s2,208(sp)
    80004496:	4e494853          	.4byte	0x4e494853
    8000449a:	00002947          	fmsub.s	fs2,ft0,ft0,ft0,rdn
    8000449e:	0000                	unimp
    800044a0:	6f76                	ld	t5,344(sp)
    800044a2:	6469                	lui	s0,0x1a
    800044a4:	4520                	lw	s0,72(a0)
    800044a6:	4f50                	lw	a2,28(a4)
    800044a8:	533a3a53          	.4byte	0x533a3a53
    800044ac:	3a3a                	fld	fs4,424(sp)
    800044ae:	6854                	ld	a3,144(s0)
    800044b0:	6572                	ld	a0,280(sp)
    800044b2:	6461                	lui	s0,0x18
    800044b4:	3a3a                	fld	fs4,424(sp)
    800044b6:	736e6f63          	bltu	t3,s6,0x80004bf4
    800044ba:	7274                	ld	a3,224(a2)
    800044bc:	6375                	lui	t1,0x1d
    800044be:	6f74                	ld	a3,216(a4)
    800044c0:	5f72                	lw	t5,60(sp)
    800044c2:	7065                	c.lui	zero,0xffff9
    800044c4:	6c69                	lui	s8,0x1a
    800044c6:	6575676f          	jal	a4,0x8005b31c
    800044ca:	4528                	lw	a0,72(a0)
    800044cc:	4f50                	lw	a2,28(a4)
    800044ce:	533a3a53          	.4byte	0x533a3a53
    800044d2:	3a3a                	fld	fs4,424(sp)
    800044d4:	6854                	ld	a3,144(s0)
    800044d6:	6572                	ld	a0,280(sp)
    800044d8:	6461                	lui	s0,0x18
    800044da:	3a3a                	fld	fs4,424(sp)
    800044dc:	6f4c                	ld	a1,152(a4)
    800044de:	64415f67          	.4byte	0x64415f67
    800044e2:	7264                	ld	s1,224(a2)
    800044e4:	202c                	fld	fa1,64(s0)
    800044e6:	6e75                	lui	t3,0x1d
    800044e8:	6e676973          	csrrsi	s2,0x6e6,14
    800044ec:	6465                	lui	s0,0x19
    800044ee:	6920                	ld	s0,80(a0)
    800044f0:	746e                	ld	s0,248(sp)
    800044f2:	0029                	c.nop	10
    800044f4:	0000                	unimp
    800044f6:	0000                	unimp
    800044f8:	6854                	ld	a3,144(s0)
    800044fa:	2065                	.2byte	0x2065
    800044fc:	616c                	ld	a1,192(a0)
    800044fe:	74207473          	csrrci	s0,0x742,0
    80004502:	7268                	ld	a0,224(a2)
    80004504:	6165                	addi	sp,sp,112
    80004506:	2064                	fld	fs1,192(s0)
    80004508:	6168                	ld	a0,192(a0)
    8000450a:	78652073          	csrs	0x786,a0
    8000450e:	7469                	lui	s0,0xffffa
    80004510:	6465                	lui	s0,0x19
    80004512:	0021                	c.nop	8
    80004514:	0000                	unimp
    80004516:	0000                	unimp
    80004518:	6552                	ld	a0,272(sp)
    8000451a:	6f62                	ld	t5,24(sp)
    8000451c:	6e69746f          	jal	s0,0x8009bc02
    80004520:	68742067          	.4byte	0x68742067
    80004524:	2065                	.2byte	0x2065
    80004526:	616d                	addi	sp,sp,240
    80004528:	6e696863          	bltu	s2,t1,0x80004c18
    8000452c:	2065                	.2byte	0x2065
    8000452e:	2e2e                	fld	ft8,200(sp)
    80004530:	002e                	c.slli	zero,0xb
    80004532:	0000                	unimp
    80004534:	0000                	unimp
    80004536:	0000                	unimp
    80004538:	3a555043          	fmadd.d	ft0,fa0,ft5,ft7,unknown
    8000453c:	693a                	ld	s2,392(sp)
    8000453e:	746e                	ld	s0,248(sp)
    80004540:	645f 7369 6261      	.byte	0x5f, 0x64, 0x69, 0x73, 0x61, 0x62
    80004546:	656c                	ld	a1,200(a0)
    80004548:	2864                	fld	fs1,208(s0)
    8000454a:	0029                	c.nop	10
    8000454c:	0000                	unimp
    8000454e:	0000                	unimp
    80004550:	74617473          	csrrci	s0,0x746,2
    80004554:	6369                	lui	t1,0x1a
    80004556:	7620                	ld	s0,104(a2)
    80004558:	2064696f          	jal	s2,0x8004a75e
    8000455c:	5045                	c.li	zero,-15
    8000455e:	3a3a534f          	fnmadd.d	ft6,fs4,ft3,ft7,unknown
    80004562:	543a3a53          	.4byte	0x543a3a53
    80004566:	6d69                	lui	s10,0x1a
    80004568:	7265                	lui	tp,0xffff9
    8000456a:	3a3a                	fld	fs4,424(sp)
    8000456c:	6e69                	lui	t3,0x1a
    8000456e:	7469                	lui	s0,0xffffa
    80004570:	2928                	fld	fa0,80(a0)
    80004572:	0000                	unimp
    80004574:	0000                	unimp
    80004576:	0000                	unimp
    80004578:	6972                	ld	s2,280(sp)
    8000457a:	5f766373          	csrrsi	t1,0x5f7,12
    8000457e:	6974                	ld	a3,208(a0)
    80004580:	656d                	lui	a0,0x1b
    80004582:	5f72                	lw	t5,60(sp)
    80004584:	6e69                	lui	t3,0x1a
    80004586:	7469                	lui	s0,0xffffa
    80004588:	632e                	ld	t1,200(sp)
    8000458a:	00000063          	beqz	zero,0x8000458a
    8000458e:	0000                	unimp
    80004590:	74617473          	csrrci	s0,0x746,2
    80004594:	6369                	lui	t1,0x1a
    80004596:	7620                	ld	s0,104(a2)
    80004598:	2064696f          	jal	s2,0x8004a79e
    8000459c:	5045                	c.li	zero,-15
    8000459e:	3a3a534f          	fnmadd.d	ft6,fs4,ft3,ft7,unknown
    800045a2:	493a3a53          	.4byte	0x493a3a53
    800045a6:	693a3a43          	fmadd.s	fs4,fs4,fs3,fa3,rup
    800045aa:	696e                	ld	s2,216(sp)
    800045ac:	2874                	fld	fa3,208(s0)
    800045ae:	0029                	c.nop	10
    800045b0:	6972                	ld	s2,280(sp)
    800045b2:	5f766373          	csrrsi	t1,0x5f7,12
    800045b6:	6369                	lui	t1,0x1a
    800045b8:	695f 696e 2e74      	.byte	0x5f, 0x69, 0x6e, 0x69, 0x74, 0x2e
    800045be:	00006363          	bltu	zero,zero,0x800045c4
    800045c2:	0000                	unimp
    800045c4:	0000                	unimp
    800045c6:	0000                	unimp
    800045c8:	4349                	li	t1,18
    800045ca:	3a3a                	fld	fs4,424(sp)
    800045cc:	7845                	lui	a6,0xffff1
    800045ce:	74706563          	bltu	zero,t2,0x80004d18
    800045d2:	6f69                	lui	t5,0x1a
    800045d4:	286e                	fld	fa6,216(sp)
    800045d6:	0000                	unimp
    800045d8:	2029                	.2byte	0x2029
    800045da:	3e3d                	addiw	t3,t3,-17 # 0x19fef
    800045dc:	7b20                	ld	s0,112(a4)
    800045de:	0000                	unimp
    800045e0:	6874                	ld	a3,208(s0)
    800045e2:	6572                	ld	a0,280(sp)
    800045e4:	6461                	lui	s0,0x18
    800045e6:	003d                	c.nop	15
    800045e8:	652c                	ld	a1,72(a0)
    800045ea:	6370                	ld	a2,192(a4)
    800045ec:	003d                	c.nop	15
    800045ee:	0000                	unimp
    800045f0:	732c                	ld	a1,96(a4)
    800045f2:	3d70                	fld	fa2,248(a0)
    800045f4:	0000                	unimp
    800045f6:	0000                	unimp
    800045f8:	732c                	ld	a1,96(a4)
    800045fa:	6174                	ld	a3,192(a0)
    800045fc:	7574                	ld	a3,232(a0)
    800045fe:	00003d73          	csrrc	s10,ustatus,zero
    80004602:	0000                	unimp
    80004604:	0000                	unimp
    80004606:	0000                	unimp
    80004608:	632c                	ld	a1,64(a4)
    8000460a:	7561                	lui	a0,0xffff8
    8000460c:	003d6573          	csrrsi	a0,fcsr,26
    80004610:	742c                	ld	a1,104(s0)
    80004612:	6176                	ld	sp,344(sp)
    80004614:	3d6c                	fld	fa1,248(a0)
    80004616:	0000                	unimp
    80004618:	007d                	c.nop	31
    8000461a:	0000                	unimp
    8000461c:	0000                	unimp
    8000461e:	0000                	unimp
    80004620:	3d20                	fld	fs0,120(a0)
    80004622:	203e                	fld	ft0,456(sp)
    80004624:	6e75                	lui	t3,0x1d
    80004626:	6c61                	lui	s8,0x18
    80004628:	6769                	lui	a4,0x1a
    8000462a:	656e                	ld	a0,216(sp)
    8000462c:	2064                	fld	fs1,192(s0)
    8000462e:	6e69                	lui	t3,0x1a
    80004630:	75727473          	csrrci	s0,0x757,4
    80004634:	6f697463          	bgeu	s2,s6,0x80004d1c
    80004638:	006e                	c.slli	zero,0x1b
    8000463a:	0000                	unimp
    8000463c:	0000                	unimp
    8000463e:	0000                	unimp
    80004640:	3d20                	fld	fs0,120(a0)
    80004642:	203e                	fld	ft0,456(sp)
    80004644:	6e69                	lui	t3,0x1a
    80004646:	75727473          	csrrci	s0,0x757,4
    8000464a:	6f697463          	bgeu	s2,s6,0x80004d32
    8000464e:	206e                	fld	ft0,216(sp)
    80004650:	7270                	ld	a2,224(a2)
    80004652:	6365746f          	jal	s0,0x8005bc88
    80004656:	6974                	ld	a3,208(a0)
    80004658:	76206e6f          	jal	t3,0x8000adba
    8000465c:	6f69                	lui	t5,0x1a
    8000465e:	616c                	ld	a1,192(a0)
    80004660:	6974                	ld	a3,208(a0)
    80004662:	00006e6f          	jal	t3,0x8000a662
    80004666:	0000                	unimp
    80004668:	3d20                	fld	fs0,120(a0)
    8000466a:	203e                	fld	ft0,456(sp)
    8000466c:	6c69                	lui	s8,0x1a
    8000466e:	656c                	ld	a1,200(a0)
    80004670:	206c6167          	.4byte	0x206c6167
    80004674:	6e69                	lui	t3,0x1a
    80004676:	75727473          	csrrci	s0,0x757,4
    8000467a:	6f697463          	bgeu	s2,s6,0x80004d62
    8000467e:	006e                	c.slli	zero,0x1b
    80004680:	3d20                	fld	fs0,120(a0)
    80004682:	203e                	fld	ft0,456(sp)
    80004684:	7262                	ld	tp,56(sp)
    80004686:	6165                	addi	sp,sp,112
    80004688:	6f70206b          	.4byte	0x6f70206b
    8000468c:	6e69                	lui	t3,0x1a
    8000468e:	0074                	addi	a3,sp,12
    80004690:	3d20                	fld	fs0,120(a0)
    80004692:	203e                	fld	ft0,456(sp)
    80004694:	6e75                	lui	t3,0x1d
    80004696:	6c61                	lui	s8,0x18
    80004698:	6769                	lui	a4,0x1a
    8000469a:	656e                	ld	a0,216(sp)
    8000469c:	2064                	fld	fs1,192(s0)
    8000469e:	6164                	ld	s1,192(a0)
    800046a0:	6174                	ld	a3,192(a0)
    800046a2:	7220                	ld	s0,96(a2)
    800046a4:	6165                	addi	sp,sp,112
    800046a6:	0064                	addi	s1,sp,12
    800046a8:	3d20                	fld	fs0,120(a0)
    800046aa:	203e                	fld	ft0,456(sp)
    800046ac:	6164                	ld	s1,192(a0)
    800046ae:	6174                	ld	a3,192(a0)
    800046b0:	7020                	ld	s0,96(s0)
    800046b2:	6f72                	ld	t5,280(sp)
    800046b4:	6574                	ld	a3,200(a0)
    800046b6:	6f697463          	bgeu	s2,s6,0x80004d9e
    800046ba:	206e                	fld	ft0,216(sp)
    800046bc:	6976                	ld	s2,344(sp)
    800046be:	74616c6f          	jal	s8,0x8001ae04
    800046c2:	6f69                	lui	t5,0x1a
    800046c4:	206e                	fld	ft0,216(sp)
    800046c6:	7228                	ld	a0,96(a2)
    800046c8:	6165                	addi	sp,sp,112
    800046ca:	2964                	fld	fs1,208(a0)
    800046cc:	0000                	unimp
    800046ce:	0000                	unimp
    800046d0:	3d20                	fld	fs0,120(a0)
    800046d2:	203e                	fld	ft0,456(sp)
    800046d4:	6e75                	lui	t3,0x1d
    800046d6:	6c61                	lui	s8,0x18
    800046d8:	6769                	lui	a4,0x1a
    800046da:	656e                	ld	a0,216(sp)
    800046dc:	2064                	fld	fs1,192(s0)
    800046de:	6164                	ld	s1,192(a0)
    800046e0:	6174                	ld	a3,192(a0)
    800046e2:	7720                	ld	s0,104(a4)
    800046e4:	6972                	ld	s2,280(sp)
    800046e6:	6574                	ld	a3,200(a0)
	...
    800046f0:	3d20                	fld	fs0,120(a0)
    800046f2:	203e                	fld	ft0,456(sp)
    800046f4:	6164                	ld	s1,192(a0)
    800046f6:	6174                	ld	a3,192(a0)
    800046f8:	7020                	ld	s0,96(s0)
    800046fa:	6f72                	ld	t5,280(sp)
    800046fc:	6574                	ld	a3,200(a0)
    800046fe:	6f697463          	bgeu	s2,s6,0x80004de6
    80004702:	206e                	fld	ft0,216(sp)
    80004704:	6976                	ld	s2,344(sp)
    80004706:	74616c6f          	jal	s8,0x8001ae4c
    8000470a:	6f69                	lui	t5,0x1a
    8000470c:	206e                	fld	ft0,216(sp)
    8000470e:	7728                	ld	a0,104(a4)
    80004710:	6972                	ld	s2,280(sp)
    80004712:	6574                	ld	a3,200(a0)
    80004714:	0029                	c.nop	10
    80004716:	0000                	unimp
    80004718:	3d20                	fld	fs0,120(a0)
    8000471a:	203e                	fld	ft0,456(sp)
    8000471c:	6162                	ld	sp,24(sp)
    8000471e:	2064                	fld	fs1,192(s0)
    80004720:	6365                	lui	t1,0x19
    80004722:	6c61                	lui	s8,0x18
    80004724:	006c                	addi	a1,sp,12
    80004726:	0000                	unimp
    80004728:	3d20                	fld	fs0,120(a0)
    8000472a:	203e                	fld	ft0,456(sp)
    8000472c:	6170                	ld	a2,192(a0)
    8000472e:	66206567          	.4byte	0x66206567
    80004732:	7561                	lui	a0,0xffff8
    80004734:	746c                	ld	a1,232(s0)
    80004736:	0000                	unimp
    80004738:	3d20                	fld	fs0,120(a0)
    8000473a:	203e                	fld	ft0,456(sp)
    8000473c:	6170                	ld	a2,192(a0)
    8000473e:	74206567          	.4byte	0x74206567
    80004742:	6261                	lui	tp,0x18
    80004744:	656c                	ld	a1,200(a0)
    80004746:	7020                	ld	s0,96(s0)
    80004748:	6f72                	ld	t5,280(sp)
    8000474a:	6574                	ld	a3,200(a0)
    8000474c:	6f697463          	bgeu	s2,s6,0x80004e34
    80004750:	206e                	fld	ft0,216(sp)
    80004752:	6976                	ld	s2,344(sp)
    80004754:	74616c6f          	jal	s8,0x8001ae9a
    80004758:	6f69                	lui	t5,0x1a
    8000475a:	006e                	c.slli	zero,0x1b
    8000475c:	f2a8                	sd	a0,96(a3)
    8000475e:	ffff                	.2byte	0xffff
    80004760:	f316                	sd	t0,416(sp)
    80004762:	ffff                	.2byte	0xffff
    80004764:	f338                	sd	a4,96(a4)
    80004766:	ffff                	.2byte	0xffff
    80004768:	f35a                	sd	s6,416(sp)
    8000476a:	ffff                	.2byte	0xffff
    8000476c:	f37c                	sd	a5,224(a4)
    8000476e:	ffff                	.2byte	0xffff
    80004770:	f39e                	sd	t2,480(sp)
    80004772:	ffff                	.2byte	0xffff
    80004774:	f3c0                	sd	s0,160(a5)
    80004776:	ffff                	.2byte	0xffff
    80004778:	f3e2                	sd	s8,480(sp)
    8000477a:	ffff                	.2byte	0xffff
    8000477c:	f404                	sd	s1,40(s0)
    8000477e:	ffff                	.2byte	0xffff
    80004780:	f404                	sd	s1,40(s0)
    80004782:	ffff                	.2byte	0xffff
    80004784:	f404                	sd	s1,40(s0)
    80004786:	ffff                	.2byte	0xffff
    80004788:	f404                	sd	s1,40(s0)
    8000478a:	ffff                	.2byte	0xffff
    8000478c:	f426                	sd	s1,40(sp)
    8000478e:	ffff                	.2byte	0xffff
    80004790:	f448                	sd	a0,168(s0)
    80004792:	ffff                	.2byte	0xffff
    80004794:	f448                	sd	a0,168(s0)
    80004796:	ffff                	.2byte	0xffff
    80004798:	f448                	sd	a0,168(s0)
    8000479a:	ffff                	.2byte	0xffff
    8000479c:	0000                	unimp
    8000479e:	0000                	unimp
    800047a0:	614d                	addi	sp,sp,176
    800047a2:	6e696863          	bltu	s2,t1,0x80004e92
    800047a6:	3a65                	addiw	s4,s4,-7
    800047a8:	723a                	ld	tp,424(sp)
    800047aa:	6265                	lui	tp,0x19
    800047ac:	28746f6f          	jal	t5,0x8004b232
    800047b0:	0029                	c.nop	10
    800047b2:	0000                	unimp
    800047b4:	0000                	unimp
    800047b6:	0000                	unimp
    800047b8:	4150                	lw	a2,4(a0)
    800047ba:	494e                	lw	s2,208(sp)
    800047bc:	000a2143          	fmadd.s	ft2,fs4,ft0,ft0,rdn

Disassembly of section .init_array:

0000000080005f88 <.init_array>:
    80005f88:	ffff                	.2byte	0xffff
    80005f8a:	ffff                	.2byte	0xffff
    80005f8c:	ffff                	.2byte	0xffff
    80005f8e:	ffff                	.2byte	0xffff
    80005f90:	1170                	addi	a2,sp,172
    80005f92:	8000                	.2byte	0x8000
    80005f94:	0000                	unimp
    80005f96:	0000                	unimp
    80005f98:	1350                	addi	a2,sp,420
    80005f9a:	8000                	.2byte	0x8000
    80005f9c:	0000                	unimp
    80005f9e:	0000                	unimp
    80005fa0:	1362                	slli	t1,t1,0x38
    80005fa2:	8000                	.2byte	0x8000
    80005fa4:	0000                	unimp
    80005fa6:	0000                	unimp
    80005fa8:	1606                	slli	a2,a2,0x21
    80005faa:	8000                	.2byte	0x8000
    80005fac:	0000                	unimp
    80005fae:	0000                	unimp
    80005fb0:	1ac0                	addi	s0,sp,372
    80005fb2:	8000                	.2byte	0x8000
    80005fb4:	0000                	unimp
    80005fb6:	0000                	unimp
    80005fb8:	1bbc                	addi	a5,sp,504
    80005fba:	8000                	.2byte	0x8000
    80005fbc:	0000                	unimp
    80005fbe:	0000                	unimp
    80005fc0:	1bdc                	addi	a5,sp,500
    80005fc2:	8000                	.2byte	0x8000
    80005fc4:	0000                	unimp
    80005fc6:	0000                	unimp
    80005fc8:	2d68                	fld	fa0,216(a0)
    80005fca:	8000                	.2byte	0x8000
    80005fcc:	0000                	unimp
    80005fce:	0000                	unimp
    80005fd0:	3682                	fld	fa3,32(sp)
    80005fd2:	8000                	.2byte	0x8000
    80005fd4:	0000                	unimp
    80005fd6:	0000                	unimp
    80005fd8:	36ca                	fld	fa3,176(sp)
    80005fda:	8000                	.2byte	0x8000
    80005fdc:	0000                	unimp
    80005fde:	0000                	unimp
    80005fe0:	3dfe                	fld	fs11,504(sp)
    80005fe2:	8000                	.2byte	0x8000
	...

Disassembly of section .fini_array:

0000000080005ff0 <.fini_array>:
    80005ff0:	ffff                	.2byte	0xffff
    80005ff2:	ffff                	.2byte	0xffff
    80005ff4:	ffff                	.2byte	0xffff
    80005ff6:	ffff                	.2byte	0xffff
	...

Disassembly of section .sdata:

0000000080400210 <.sdata>:
    80400210:	0000                	unimp
    80400212:	ff90                	sd	a2,56(a5)
    80400214:	0000                	unimp
	...

Disassembly of section .sbss:

0000000080400218 <.sbss>:
	...

Disassembly of section .bss:

00000000804002a8 <.bss>:
	...

Disassembly of section .riscv.attributes:

0000000000000000 <.riscv.attributes>:
   0:	3641                	addiw	a2,a2,-16
   2:	0000                	unimp
   4:	7200                	ld	s0,32(a2)
   6:	7369                	lui	t1,0xffffa
   8:	01007663          	bgeu	zero,a6,0x14
   c:	002c                	addi	a1,sp,8
   e:	0000                	unimp
  10:	7205                	lui	tp,0xfffe1
  12:	3676                	fld	fa2,376(sp)
  14:	6934                	ld	a3,80(a0)
  16:	7032                	.2byte	0x7032
  18:	5f30                	lw	a2,120(a4)
  1a:	326d                	addiw	tp,tp,-5 # 0xfffffffffffe0ffb
  1c:	3070                	fld	fa2,224(s0)
  1e:	615f 7032 5f30      	.byte	0x5f, 0x61, 0x32, 0x70, 0x30, 0x5f
  24:	3266                	fld	ft4,120(sp)
  26:	3070                	fld	fa2,224(s0)
  28:	645f 7032 5f30      	.byte	0x5f, 0x64, 0x32, 0x70, 0x30, 0x5f
  2e:	30703263          	.4byte	0x30703263
  32:	0800                	addi	s0,sp,16
  34:	0a01                	addi	s4,s4,0
  36:	0b              	Address 0x0000000000000036 is out of bounds.

